
SimpleTCP.elf:     file format elf32-avr

Sections:
Idx Name          Size      VMA       LMA       File off  Algn
  0 .data         00000234  00800100  00001666  000016fa  2**0
                  CONTENTS, ALLOC, LOAD, DATA
  1 .text         00001666  00000000  00000000  00000094  2**1
                  CONTENTS, ALLOC, LOAD, READONLY, CODE
  2 .bss          00000086  00800334  00800334  0000192e  2**0
                  ALLOC
  3 .comment      0000005c  00000000  00000000  0000192e  2**0
                  CONTENTS, READONLY
  4 .note.gnu.avr.deviceinfo 00000040  00000000  00000000  0000198c  2**2
                  CONTENTS, READONLY
  5 .debug_aranges 00000128  00000000  00000000  000019cc  2**0
                  CONTENTS, READONLY, DEBUGGING
  6 .debug_info   0000171d  00000000  00000000  00001af4  2**0
                  CONTENTS, READONLY, DEBUGGING
  7 .debug_abbrev 00000be4  00000000  00000000  00003211  2**0
                  CONTENTS, READONLY, DEBUGGING
  8 .debug_line   00000b77  00000000  00000000  00003df5  2**0
                  CONTENTS, READONLY, DEBUGGING
  9 .debug_frame  0000031c  00000000  00000000  0000496c  2**2
                  CONTENTS, READONLY, DEBUGGING
 10 .debug_str    000005f0  00000000  00000000  00004c88  2**0
                  CONTENTS, READONLY, DEBUGGING
 11 .debug_loc    00000ae3  00000000  00000000  00005278  2**0
                  CONTENTS, READONLY, DEBUGGING
 12 .debug_ranges 000000f8  00000000  00000000  00005d5b  2**0
                  CONTENTS, READONLY, DEBUGGING

Disassembly of section .text:

00000000 <__vectors>:
       0:	0c 94 b5 00 	jmp	0x16a	; 0x16a <__ctors_end>
       4:	0c 94 d2 00 	jmp	0x1a4	; 0x1a4 <__bad_interrupt>
       8:	0c 94 d2 00 	jmp	0x1a4	; 0x1a4 <__bad_interrupt>
       c:	0c 94 d2 00 	jmp	0x1a4	; 0x1a4 <__bad_interrupt>
      10:	0c 94 d2 00 	jmp	0x1a4	; 0x1a4 <__bad_interrupt>
      14:	0c 94 d2 00 	jmp	0x1a4	; 0x1a4 <__bad_interrupt>
      18:	0c 94 d2 00 	jmp	0x1a4	; 0x1a4 <__bad_interrupt>
      1c:	0c 94 d2 00 	jmp	0x1a4	; 0x1a4 <__bad_interrupt>
      20:	0c 94 d2 00 	jmp	0x1a4	; 0x1a4 <__bad_interrupt>
      24:	0c 94 d2 00 	jmp	0x1a4	; 0x1a4 <__bad_interrupt>
      28:	0c 94 d2 00 	jmp	0x1a4	; 0x1a4 <__bad_interrupt>
      2c:	0c 94 d2 00 	jmp	0x1a4	; 0x1a4 <__bad_interrupt>
      30:	0c 94 d2 00 	jmp	0x1a4	; 0x1a4 <__bad_interrupt>
      34:	0c 94 d2 00 	jmp	0x1a4	; 0x1a4 <__bad_interrupt>
      38:	0c 94 d2 00 	jmp	0x1a4	; 0x1a4 <__bad_interrupt>
      3c:	0c 94 d2 00 	jmp	0x1a4	; 0x1a4 <__bad_interrupt>
      40:	0c 94 d2 00 	jmp	0x1a4	; 0x1a4 <__bad_interrupt>
      44:	0c 94 d2 00 	jmp	0x1a4	; 0x1a4 <__bad_interrupt>
      48:	0c 94 d2 00 	jmp	0x1a4	; 0x1a4 <__bad_interrupt>
      4c:	0c 94 d2 00 	jmp	0x1a4	; 0x1a4 <__bad_interrupt>
      50:	0c 94 d2 00 	jmp	0x1a4	; 0x1a4 <__bad_interrupt>
      54:	0c 94 d2 00 	jmp	0x1a4	; 0x1a4 <__bad_interrupt>
      58:	0c 94 d2 00 	jmp	0x1a4	; 0x1a4 <__bad_interrupt>
      5c:	0c 94 d2 00 	jmp	0x1a4	; 0x1a4 <__bad_interrupt>
      60:	0c 94 d2 00 	jmp	0x1a4	; 0x1a4 <__bad_interrupt>
      64:	0c 94 d2 00 	jmp	0x1a4	; 0x1a4 <__bad_interrupt>

00000068 <__trampolines_end>:
      68:	6e 61       	ori	r22, 0x1E	; 30
      6a:	6e 00       	.word	0x006e	; ????

0000006c <__c.2240>:
      6c:	69 6e 66 00 00 40 7a 10 f3 5a 00 a0 72 4e 18 09     inf..@z..Z..rN..
      7c:	00 10 a5 d4 e8 00 00 e8 76 48 17 00 00 e4 0b 54     ........vH.....T
      8c:	02 00 00 ca 9a 3b 00 00 00 e1 f5 05 00 00 80 96     .....;..........
      9c:	98 00 00 00 40 42 0f 00 00 00 a0 86 01 00 00 00     ....@B..........
      ac:	10 27 00 00 00 00 e8 03 00 00 00 00 64 00 00 00     .'..........d...
      bc:	00 00 0a 00 00 00 00 00 01 00 00 00 00 00 2c 76     ..............,v
      cc:	d8 88 dc 67 4f 08 23 df c1 df ae 59 e1 b1 b7 96     ...gO.#....Y....
      dc:	e5 e3 e4 53 c6 3a e6 51 99 76 96 e8 e6 c2 84 26     ...S.:.Q.v.....&
      ec:	eb 89 8c 9b 62 ed 40 7c 6f fc ef bc 9c 9f 40 f2     ....b.@|o.....@.
      fc:	ba a5 6f a5 f4 90 05 5a 2a f7 5c 93 6b 6c f9 67     ..o....Z*.\.kl.g
     10c:	6d c1 1b fc e0 e4 0d 47 fe f5 20 e6 b5 00 d0 ed     m......G.. .....
     11c:	90 2e 03 00 94 35 77 05 00 80 84 1e 08 00 00 20     .....5w........ 
     12c:	4e 0a 00 00 00 c8 0c 33 33 33 33 0f 98 6e 12 83     N......3333..n..
     13c:	11 41 ef 8d 21 14 89 3b e6 55 16 cf fe e6 db 18     .A..!..;.U......
     14c:	d1 84 4b 38 1b f7 7c 1d 90 1d a4 bb e4 24 20 32     ..K8..|......$ 2
     15c:	84 72 5e 22 81 00 c9 f1 24 ec a1 e5 3d 27           .r^"....$...='

0000016a <__ctors_end>:
     16a:	11 24       	eor	r1, r1
     16c:	1f be       	out	0x3f, r1	; 63
     16e:	cf ef       	ldi	r28, 0xFF	; 255
     170:	d8 e0       	ldi	r29, 0x08	; 8
     172:	de bf       	out	0x3e, r29	; 62
     174:	cd bf       	out	0x3d, r28	; 61

00000176 <__do_copy_data>:
     176:	13 e0       	ldi	r17, 0x03	; 3
     178:	a0 e0       	ldi	r26, 0x00	; 0
     17a:	b1 e0       	ldi	r27, 0x01	; 1
     17c:	e6 e6       	ldi	r30, 0x66	; 102
     17e:	f6 e1       	ldi	r31, 0x16	; 22
     180:	02 c0       	rjmp	.+4      	; 0x186 <__do_copy_data+0x10>
     182:	05 90       	lpm	r0, Z+
     184:	0d 92       	st	X+, r0
     186:	a4 33       	cpi	r26, 0x34	; 52
     188:	b1 07       	cpc	r27, r17
     18a:	d9 f7       	brne	.-10     	; 0x182 <__do_copy_data+0xc>

0000018c <__do_clear_bss>:
     18c:	23 e0       	ldi	r18, 0x03	; 3
     18e:	a4 e3       	ldi	r26, 0x34	; 52
     190:	b3 e0       	ldi	r27, 0x03	; 3
     192:	01 c0       	rjmp	.+2      	; 0x196 <.do_clear_bss_start>

00000194 <.do_clear_bss_loop>:
     194:	1d 92       	st	X+, r1

00000196 <.do_clear_bss_start>:
     196:	aa 3b       	cpi	r26, 0xBA	; 186
     198:	b2 07       	cpc	r27, r18
     19a:	e1 f7       	brne	.-8      	; 0x194 <.do_clear_bss_loop>
     19c:	0e 94 0e 01 	call	0x21c	; 0x21c <main>
     1a0:	0c 94 31 0b 	jmp	0x1662	; 0x1662 <_exit>

000001a4 <__bad_interrupt>:
     1a4:	0c 94 00 00 	jmp	0	; 0x0 <__vectors>

000001a8 <InitADC>:

 #include <avr/io.h>

void InitADC()
{
	ADMUX=(1<<REFS0); // For Aref=AVcc;
     1a8:	80 e4       	ldi	r24, 0x40	; 64
     1aa:	80 93 7c 00 	sts	0x007C, r24	; 0x80007c <__TEXT_REGION_LENGTH__+0x7e007c>
	ADCSRA=(1<<ADEN)|(1<<ADPS2)|(1<<ADPS1)|(1<<ADPS0); //Rescale div factor = 128
     1ae:	87 e8       	ldi	r24, 0x87	; 135
     1b0:	80 93 7a 00 	sts	0x007A, r24	; 0x80007a <__TEXT_REGION_LENGTH__+0x7e007a>
     1b4:	08 95       	ret

000001b6 <ReadADC>:

uint16_t ReadADC(uint8_t ch)
{
	// Select ADC Channel ch must be 0-7
	ch=ch&0x07;
	ADMUX|=ch;
     1b6:	ec e7       	ldi	r30, 0x7C	; 124
     1b8:	f0 e0       	ldi	r31, 0x00	; 0
     1ba:	90 81       	ld	r25, Z
}

uint16_t ReadADC(uint8_t ch)
{
	// Select ADC Channel ch must be 0-7
	ch=ch&0x07;
     1bc:	87 70       	andi	r24, 0x07	; 7
	ADMUX|=ch;
     1be:	98 2b       	or	r25, r24
     1c0:	90 83       	st	Z, r25

	// Start Single conversion
	ADCSRA|=(1<<ADSC);
     1c2:	ea e7       	ldi	r30, 0x7A	; 122
     1c4:	f0 e0       	ldi	r31, 0x00	; 0
     1c6:	80 81       	ld	r24, Z
     1c8:	80 64       	ori	r24, 0x40	; 64
     1ca:	80 83       	st	Z, r24

	// Wait for conversion to complete
	while(!(ADCSRA & (1<<ADIF)));
     1cc:	80 81       	ld	r24, Z
     1ce:	84 ff       	sbrs	r24, 4
     1d0:	fd cf       	rjmp	.-6      	; 0x1cc <ReadADC+0x16>

	// Clear ADIF by writing one to it
	ADCSRA|=(1<<ADIF);
     1d2:	ea e7       	ldi	r30, 0x7A	; 122
     1d4:	f0 e0       	ldi	r31, 0x00	; 0
     1d6:	80 81       	ld	r24, Z
     1d8:	80 61       	ori	r24, 0x10	; 16
     1da:	80 83       	st	Z, r24

	// Returning the adc
	return(ADC);
     1dc:	80 91 78 00 	lds	r24, 0x0078	; 0x800078 <__TEXT_REGION_LENGTH__+0x7e0078>
     1e0:	90 91 79 00 	lds	r25, 0x0079	; 0x800079 <__TEXT_REGION_LENGTH__+0x7e0079>
     1e4:	08 95       	ret

000001e6 <strCmp>:
	return 0;
}

uint8_t strCmp(char *source, char *cmpStr)
{
	for(int i = 0; cmpStr[i] != '\0'; i++)
     1e6:	fb 01       	movw	r30, r22
     1e8:	20 81       	ld	r18, Z
     1ea:	22 23       	and	r18, r18
     1ec:	89 f0       	breq	.+34     	; 0x210 <strCmp+0x2a>
	{
		if(source[i] != cmpStr[i])
     1ee:	fc 01       	movw	r30, r24
     1f0:	30 81       	ld	r19, Z
     1f2:	23 13       	cpse	r18, r19
     1f4:	0f c0       	rjmp	.+30     	; 0x214 <strCmp+0x2e>
     1f6:	fb 01       	movw	r30, r22
     1f8:	31 96       	adiw	r30, 0x01	; 1
     1fa:	dc 01       	movw	r26, r24
     1fc:	11 96       	adiw	r26, 0x01	; 1
     1fe:	03 c0       	rjmp	.+6      	; 0x206 <strCmp+0x20>
     200:	8d 91       	ld	r24, X+
     202:	98 13       	cpse	r25, r24
     204:	09 c0       	rjmp	.+18     	; 0x218 <strCmp+0x32>
	return 0;
}

uint8_t strCmp(char *source, char *cmpStr)
{
	for(int i = 0; cmpStr[i] != '\0'; i++)
     206:	91 91       	ld	r25, Z+
     208:	91 11       	cpse	r25, r1
     20a:	fa cf       	rjmp	.-12     	; 0x200 <strCmp+0x1a>
	{
		if(source[i] != cmpStr[i])
		return 0;
	}
	return 1;
     20c:	81 e0       	ldi	r24, 0x01	; 1
     20e:	08 95       	ret
     210:	81 e0       	ldi	r24, 0x01	; 1
     212:	08 95       	ret
uint8_t strCmp(char *source, char *cmpStr)
{
	for(int i = 0; cmpStr[i] != '\0'; i++)
	{
		if(source[i] != cmpStr[i])
		return 0;
     214:	80 e0       	ldi	r24, 0x00	; 0
     216:	08 95       	ret
     218:	80 e0       	ldi	r24, 0x00	; 0
	}
	return 1;
     21a:	08 95       	ret

0000021c <main>:
int temperature = 55;
int preDefWaterLvl = 10;
int waterLevel = 10;

int main(void)
{
     21c:	2f 92       	push	r2
     21e:	3f 92       	push	r3
     220:	4f 92       	push	r4
     222:	5f 92       	push	r5
     224:	6f 92       	push	r6
     226:	7f 92       	push	r7
     228:	8f 92       	push	r8
     22a:	9f 92       	push	r9
     22c:	af 92       	push	r10
     22e:	bf 92       	push	r11
     230:	cf 92       	push	r12
     232:	df 92       	push	r13
     234:	ef 92       	push	r14
     236:	ff 92       	push	r15
     238:	0f 93       	push	r16
     23a:	1f 93       	push	r17
     23c:	cf 93       	push	r28
     23e:	df 93       	push	r29
	// Initializing the serial connection
	uart_init();
     240:	0e 94 e8 02 	call	0x5d0	; 0x5d0 <uart_init>
	stdout = &uart_str;
     244:	80 e0       	ldi	r24, 0x00	; 0
     246:	91 e0       	ldi	r25, 0x01	; 1
     248:	90 93 b7 03 	sts	0x03B7, r25	; 0x8003b7 <__iob+0x3>
     24c:	80 93 b6 03 	sts	0x03B6, r24	; 0x8003b6 <__iob+0x2>
	
	InitADC();
     250:	0e 94 d4 00 	call	0x1a8	; 0x1a8 <InitADC>
	#else
		//round up by default
		__ticks_dc = (uint32_t)(ceil(fabs(__tmp)));
	#endif

	__builtin_avr_delay_cycles(__ticks_dc);
     254:	2f e3       	ldi	r18, 0x3F	; 63
     256:	8b e4       	ldi	r24, 0x4B	; 75
     258:	9c e4       	ldi	r25, 0x4C	; 76
     25a:	21 50       	subi	r18, 0x01	; 1
     25c:	80 40       	sbci	r24, 0x00	; 0
     25e:	90 40       	sbci	r25, 0x00	; 0
     260:	e1 f7       	brne	.-8      	; 0x25a <main+0x3e>
     262:	00 c0       	rjmp	.+0      	; 0x264 <main+0x48>
     264:	00 00       	nop

	_delay_ms(1000);

	//initializing the Wiznet5100 module and the SPI
	printf("Initializing Wiznet and SPI...\n");
     266:	80 e2       	ldi	r24, 0x20	; 32
     268:	91 e0       	ldi	r25, 0x01	; 1
     26a:	0e 94 a3 0a 	call	0x1546	; 0x1546 <puts>
	spiInit();
     26e:	0e 94 80 02 	call	0x500	; 0x500 <spiInit>
     272:	af e3       	ldi	r26, 0x3F	; 63
     274:	bb e4       	ldi	r27, 0x4B	; 75
     276:	ec e4       	ldi	r30, 0x4C	; 76
     278:	a1 50       	subi	r26, 0x01	; 1
     27a:	b0 40       	sbci	r27, 0x00	; 0
     27c:	e0 40       	sbci	r30, 0x00	; 0
     27e:	e1 f7       	brne	.-8      	; 0x278 <main+0x5c>
     280:	00 c0       	rjmp	.+0      	; 0x282 <main+0x66>
     282:	00 00       	nop
	_delay_ms(1000);
	WizInit();
     284:	0e 94 43 04 	call	0x886	; 0x886 <WizInit>
	printf("Initializing done!\n");
     288:	8f e3       	ldi	r24, 0x3F	; 63
     28a:	91 e0       	ldi	r25, 0x01	; 1
     28c:	0e 94 a3 0a 	call	0x1546	; 0x1546 <puts>
	*/

	// For data packages
	uint8_t socketState = 0;
	uint8_t recDataSize = 0;
	uint8_t dataSize = 0;
     290:	21 2c       	mov	r2, r1
			}
		}
		if (socketState == SOCK_CLOSING)
		{
			// free used resources
			printf("Socket Closing...");
     292:	0f 2e       	mov	r0, r31
     294:	f2 e2       	ldi	r31, 0x22	; 34
     296:	cf 2e       	mov	r12, r31
     298:	f3 e0       	ldi	r31, 0x03	; 3
     29a:	df 2e       	mov	r13, r31
     29c:	f0 2d       	mov	r31, r0
		{
			// Get the size of the received data
			recDataSize = getAvailableData();

			// if data status is approved
			if (UCSR0A & (1<<RXC0))
     29e:	0f 2e       	mov	r0, r31
     2a0:	f0 ec       	ldi	r31, 0xC0	; 192
     2a2:	ef 2e       	mov	r14, r31
     2a4:	f1 2c       	mov	r15, r1
     2a6:	f0 2d       	mov	r31, r0
					printf("Could not find any data!\n");
					break; // Error, there was no data
				}

				// Print the received data
				printf("Bytes received = %d\n", recDataSize);
     2a8:	0f 2e       	mov	r0, r31
     2aa:	fa ea       	ldi	r31, 0xAA	; 170
     2ac:	af 2e       	mov	r10, r31
     2ae:	f1 e0       	ldi	r31, 0x01	; 1
     2b0:	bf 2e       	mov	r11, r31
     2b2:	f0 2d       	mov	r31, r0

					// Reset the size of data
					dataSize = 0;
				}

				else if (buffer[0] == 255)
     2b4:	0f 2e       	mov	r0, r31
     2b6:	f4 e3       	ldi	r31, 0x34	; 52
     2b8:	8f 2e       	mov	r8, r31
     2ba:	f3 e0       	ldi	r31, 0x03	; 3
     2bc:	9f 2e       	mov	r9, r31
     2be:	f0 2d       	mov	r31, r0
						send(buffer, dataSize);
						_delay_ms(100);
					}

					// Reset the size of data
					dataSize = 0;
     2c0:	31 2c       	mov	r3, r1
					i++;
				}
					send(count, i);*/

				// Printing out the temperature
				printf("Temperature = %.2f%cC\n", temp, conv);
     2c2:	0f 2e       	mov	r0, r31
     2c4:	fa e7       	ldi	r31, 0x7A	; 122
     2c6:	6f 2e       	mov	r6, r31
     2c8:	f1 e0       	ldi	r31, 0x01	; 1
     2ca:	7f 2e       	mov	r7, r31
     2cc:	f0 2d       	mov	r31, r0
	int conv = ASCII;

	while (1)
	{
		// Gets the current socket state and saves it ind the variable socketState
		socketState = getSocketState();
     2ce:	0e 94 18 03 	call	0x630	; 0x630 <getSocketState>
     2d2:	08 2f       	mov	r16, r24

		// If socket state is closed - open it
		if (socketState == SOCK_CLOSED)
     2d4:	81 11       	cpse	r24, r1
     2d6:	0a c0       	rjmp	.+20     	; 0x2ec <main+0xd0>
		{
			// Opens socket as TCP port 11
			openSocket(MR_TCP, 11);
     2d8:	6b e0       	ldi	r22, 0x0B	; 11
     2da:	70 e0       	ldi	r23, 0x00	; 0
     2dc:	81 e0       	ldi	r24, 0x01	; 1
     2de:	0e 94 60 03 	call	0x6c0	; 0x6c0 <openSocket>
			printf("Socketstate = OPEN\n");
     2e2:	82 e5       	ldi	r24, 0x52	; 82
     2e4:	91 e0       	ldi	r25, 0x01	; 1
     2e6:	0e 94 a3 0a 	call	0x1546	; 0x1546 <puts>
     2ea:	dd c0       	rjmp	.+442    	; 0x4a6 <__LOCK_REGION_LENGTH__+0xa6>
		}

		// If socket is initialized, then open for the connection
		if (socketState == SOCK_INIT)
     2ec:	83 31       	cpi	r24, 0x13	; 19
     2ee:	39 f4       	brne	.+14     	; 0x2fe <main+0xe2>
		{
			// Starting a listen so it's possible to connect to the socket
			listen();
     2f0:	0e 94 43 03 	call	0x686	; 0x686 <listen>
			printf("Socketstate = LISTEN\n");
     2f4:	85 e6       	ldi	r24, 0x65	; 101
     2f6:	91 e0       	ldi	r25, 0x01	; 1
     2f8:	0e 94 a3 0a 	call	0x1546	; 0x1546 <puts>
     2fc:	dd c0       	rjmp	.+442    	; 0x4b8 <__LOCK_REGION_LENGTH__+0xb8>
		}

		// If the socket state is established recieve and send data
		if (socketState == SOCK_ESTABLISHED)
     2fe:	87 31       	cpi	r24, 0x17	; 23
     300:	09 f0       	breq	.+2      	; 0x304 <main+0xe8>
     302:	d1 c0       	rjmp	.+418    	; 0x4a6 <__LOCK_REGION_LENGTH__+0xa6>
		{
			// Get the size of the received data
			recDataSize = getAvailableData();
     304:	0e 94 1d 03 	call	0x63a	; 0x63a <getAvailableData>
     308:	ec 01       	movw	r28, r24
     30a:	18 2f       	mov	r17, r24

			// if data status is approved
			if (UCSR0A & (1<<RXC0))
     30c:	d7 01       	movw	r26, r14
     30e:	8c 91       	ld	r24, X
     310:	88 23       	and	r24, r24
     312:	6c f5       	brge	.+90     	; 0x36e <main+0x152>
			{
				// Get temperature and water level data from sink

				// Read Analog value from A0
				adc_result = ReadADC(0);
     314:	83 2d       	mov	r24, r3
     316:	0e 94 db 00 	call	0x1b6	; 0x1b6 <ReadADC>
					i++;
				}
					send(count, i);*/

				// Printing out the temperature
				printf("Temperature = %.2f%cC\n", temp, conv);
     31a:	1f 92       	push	r1
     31c:	b8 ef       	ldi	r27, 0xF8	; 248
     31e:	bf 93       	push	r27

				// Read Analog value from A0
				adc_result = ReadADC(0);
				
				// Convert to a Celsius value
				temp = (5.0 * (float)adc_result * 100.0) / 1024.0;
     320:	bc 01       	movw	r22, r24
     322:	80 e0       	ldi	r24, 0x00	; 0
     324:	90 e0       	ldi	r25, 0x00	; 0
     326:	0e 94 b9 04 	call	0x972	; 0x972 <__floatunsisf>
     32a:	20 e0       	ldi	r18, 0x00	; 0
     32c:	30 e0       	ldi	r19, 0x00	; 0
     32e:	40 ea       	ldi	r20, 0xA0	; 160
     330:	50 e4       	ldi	r21, 0x40	; 64
     332:	0e 94 f6 04 	call	0x9ec	; 0x9ec <__mulsf3>
     336:	20 e0       	ldi	r18, 0x00	; 0
     338:	30 e0       	ldi	r19, 0x00	; 0
     33a:	48 ec       	ldi	r20, 0xC8	; 200
     33c:	52 e4       	ldi	r21, 0x42	; 66
     33e:	0e 94 f6 04 	call	0x9ec	; 0x9ec <__mulsf3>
     342:	20 e0       	ldi	r18, 0x00	; 0
     344:	30 e0       	ldi	r19, 0x00	; 0
     346:	40 e8       	ldi	r20, 0x80	; 128
     348:	5a e3       	ldi	r21, 0x3A	; 58
     34a:	0e 94 f6 04 	call	0x9ec	; 0x9ec <__mulsf3>
					i++;
				}
					send(count, i);*/

				// Printing out the temperature
				printf("Temperature = %.2f%cC\n", temp, conv);
     34e:	9f 93       	push	r25
     350:	8f 93       	push	r24
     352:	7f 93       	push	r23
     354:	6f 93       	push	r22
     356:	7f 92       	push	r7
     358:	6f 92       	push	r6
     35a:	0e 94 8d 0a 	call	0x151a	; 0x151a <printf>
     35e:	ed b7       	in	r30, 0x3d	; 61
     360:	fe b7       	in	r31, 0x3e	; 62
     362:	38 96       	adiw	r30, 0x08	; 8
     364:	0f b6       	in	r0, 0x3f	; 63
     366:	f8 94       	cli
     368:	fe bf       	out	0x3e, r31	; 62
     36a:	0f be       	out	0x3f, r0	; 63
     36c:	ed bf       	out	0x3d, r30	; 61
			}

			// Process the data
			if (recDataSize > 0) // If there is data
     36e:	11 23       	and	r17, r17
     370:	09 f4       	brne	.+2      	; 0x374 <main+0x158>
     372:	a7 c0       	rjmp	.+334    	; 0x4c2 <__LOCK_REGION_LENGTH__+0xc2>
			{
				// Make sure there is data to process
				if (recieve(&buffer[dataSize], recDataSize) <= 0)
     374:	2e 01       	movw	r4, r28
     376:	55 24       	eor	r5, r5
     378:	82 2d       	mov	r24, r2
     37a:	90 e0       	ldi	r25, 0x00	; 0
     37c:	b2 01       	movw	r22, r4
     37e:	8c 5c       	subi	r24, 0xCC	; 204
     380:	9c 4f       	sbci	r25, 0xFC	; 252
     382:	0e 94 f2 03 	call	0x7e4	; 0x7e4 <recieve>
     386:	89 2b       	or	r24, r25
     388:	09 f4       	brne	.+2      	; 0x38c <main+0x170>
     38a:	a1 c0       	rjmp	.+322    	; 0x4ce <__LOCK_REGION_LENGTH__+0xce>
					printf("Could not find any data!\n");
					break; // Error, there was no data
				}

				// Print the received data
				printf("Bytes received = %d\n", recDataSize);
     38c:	5f 92       	push	r5
     38e:	4f 92       	push	r4
     390:	bf 92       	push	r11
     392:	af 92       	push	r10
     394:	0e 94 8d 0a 	call	0x151a	; 0x151a <printf>

				// Now we got data to process
				dataSize += recDataSize;
     398:	2c 0e       	add	r2, r28

				// Send the buffer and received data size
				if (buffer[dataSize -1] == '\n')
     39a:	82 2d       	mov	r24, r2
     39c:	90 e0       	ldi	r25, 0x00	; 0
     39e:	fc 01       	movw	r30, r24
     3a0:	ed 5c       	subi	r30, 0xCD	; 205
     3a2:	fc 4f       	sbci	r31, 0xFC	; 252
     3a4:	0f 90       	pop	r0
     3a6:	0f 90       	pop	r0
     3a8:	0f 90       	pop	r0
     3aa:	0f 90       	pop	r0
     3ac:	20 81       	ld	r18, Z
     3ae:	2a 30       	cpi	r18, 0x0A	; 10
     3b0:	09 f0       	breq	.+2      	; 0x3b4 <main+0x198>
     3b2:	68 c0       	rjmp	.+208    	; 0x484 <__LOCK_REGION_LENGTH__+0x84>
				{

					dataSize = 0;

					// If received input is equal to <ENTER> send a welcome
					if (buffer[0] == '\n' || buffer[0] == '\r')
     3b4:	d4 01       	movw	r26, r8
     3b6:	8c 91       	ld	r24, X
     3b8:	8a 30       	cpi	r24, 0x0A	; 10
     3ba:	11 f0       	breq	.+4      	; 0x3c0 <main+0x1a4>
     3bc:	8d 30       	cpi	r24, 0x0D	; 13
     3be:	61 f4       	brne	.+24     	; 0x3d8 <main+0x1bc>
					{
						// Sending welcome
						send("Welcome!\r\nYou are connected to me, Arduino and wish to do something.\r\nYour wish is my command, sir!\r\n", 101);
     3c0:	65 e6       	ldi	r22, 0x65	; 101
     3c2:	70 e0       	ldi	r23, 0x00	; 0
     3c4:	8f eb       	ldi	r24, 0xBF	; 191
     3c6:	91 e0       	ldi	r25, 0x01	; 1
     3c8:	0e 94 8d 03 	call	0x71a	; 0x71a <send>
						printf("Welcome is send!\n");
     3cc:	85 e2       	ldi	r24, 0x25	; 37
     3ce:	92 e0       	ldi	r25, 0x02	; 2
     3d0:	0e 94 a3 0a 	call	0x1546	; 0x1546 <puts>
						send(buffer, dataSize);
						_delay_ms(100);
					}

					// Reset the size of data
					dataSize = 0;
     3d4:	23 2c       	mov	r2, r3
					// If received input is equal to <ENTER> send a welcome
					if (buffer[0] == '\n' || buffer[0] == '\r')
					{
						// Sending welcome
						send("Welcome!\r\nYou are connected to me, Arduino and wish to do something.\r\nYour wish is my command, sir!\r\n", 101);
						printf("Welcome is send!\n");
     3d6:	75 c0       	rjmp	.+234    	; 0x4c2 <__LOCK_REGION_LENGTH__+0xc2>
					}

					// If received input equals to quit or exit. send disconnect
					else if (strCmp(buffer, "quit") != 0 || strCmp(buffer, "exit") != 0)
     3d8:	66 e3       	ldi	r22, 0x36	; 54
     3da:	72 e0       	ldi	r23, 0x02	; 2
     3dc:	c4 01       	movw	r24, r8
     3de:	0e 94 f3 00 	call	0x1e6	; 0x1e6 <strCmp>
     3e2:	81 11       	cpse	r24, r1
     3e4:	07 c0       	rjmp	.+14     	; 0x3f4 <main+0x1d8>
     3e6:	6b e3       	ldi	r22, 0x3B	; 59
     3e8:	72 e0       	ldi	r23, 0x02	; 2
     3ea:	c4 01       	movw	r24, r8
     3ec:	0e 94 f3 00 	call	0x1e6	; 0x1e6 <strCmp>
     3f0:	88 23       	and	r24, r24
     3f2:	71 f0       	breq	.+28     	; 0x410 <__LOCK_REGION_LENGTH__+0x10>
					{
						// Sending disconnect
						send("Have a marvelous day, sir!\r\nDisconnecting...", 44);
     3f4:	6c e2       	ldi	r22, 0x2C	; 44
     3f6:	70 e0       	ldi	r23, 0x00	; 0
     3f8:	80 e4       	ldi	r24, 0x40	; 64
     3fa:	92 e0       	ldi	r25, 0x02	; 2
     3fc:	0e 94 8d 03 	call	0x71a	; 0x71a <send>
						printf("Disconnect is send!\n");
     400:	8d e6       	ldi	r24, 0x6D	; 109
     402:	92 e0       	ldi	r25, 0x02	; 2
     404:	0e 94 a3 0a 	call	0x1546	; 0x1546 <puts>
						disconnect();
     408:	0e 94 22 03 	call	0x644	; 0x644 <disconnect>
						send(buffer, dataSize);
						_delay_ms(100);
					}

					// Reset the size of data
					dataSize = 0;
     40c:	23 2c       	mov	r2, r3
					else if (strCmp(buffer, "quit") != 0 || strCmp(buffer, "exit") != 0)
					{
						// Sending disconnect
						send("Have a marvelous day, sir!\r\nDisconnecting...", 44);
						printf("Disconnect is send!\n");
						disconnect();
     40e:	59 c0       	rjmp	.+178    	; 0x4c2 <__LOCK_REGION_LENGTH__+0xc2>
					}

					// Else if start is received open ports!
					else if (strCmp(buffer, "start") != 0)
     410:	61 e8       	ldi	r22, 0x81	; 129
     412:	72 e0       	ldi	r23, 0x02	; 2
     414:	c4 01       	movw	r24, r8
     416:	0e 94 f3 00 	call	0x1e6	; 0x1e6 <strCmp>
     41a:	88 23       	and	r24, r24
     41c:	61 f0       	breq	.+24     	; 0x436 <__LOCK_REGION_LENGTH__+0x36>

						PORTD = 0xEC;
						//PORTB = 0x03;
						PORTC = 0xFF;*/

						send("Turned the system ON!\r\n", 23);
     41e:	67 e1       	ldi	r22, 0x17	; 23
     420:	70 e0       	ldi	r23, 0x00	; 0
     422:	87 e8       	ldi	r24, 0x87	; 135
     424:	92 e0       	ldi	r25, 0x02	; 2
     426:	0e 94 8d 03 	call	0x71a	; 0x71a <send>
						printf("Start is send!\n");
     42a:	8f e9       	ldi	r24, 0x9F	; 159
     42c:	92 e0       	ldi	r25, 0x02	; 2
     42e:	0e 94 a3 0a 	call	0x1546	; 0x1546 <puts>
						send(buffer, dataSize);
						_delay_ms(100);
					}

					// Reset the size of data
					dataSize = 0;
     432:	23 2c       	mov	r2, r3
     434:	46 c0       	rjmp	.+140    	; 0x4c2 <__LOCK_REGION_LENGTH__+0xc2>
						send("Turned the system ON!\r\n", 23);
						printf("Start is send!\n");
					}

					// Else if stop is received close ports!
					else if (strCmp(buffer, "stop") != 0)
     436:	6e ea       	ldi	r22, 0xAE	; 174
     438:	72 e0       	ldi	r23, 0x02	; 2
     43a:	c4 01       	movw	r24, r8
     43c:	0e 94 f3 00 	call	0x1e6	; 0x1e6 <strCmp>
     440:	88 23       	and	r24, r24
     442:	61 f0       	breq	.+24     	; 0x45c <__LOCK_REGION_LENGTH__+0x5c>

						//PORTC = ~PORTC;
						//PORTD = ~PORTD;
						//PORTB = ~PORTB; 

						send("Turned the system OFF!\r\n", 24);
     444:	68 e1       	ldi	r22, 0x18	; 24
     446:	70 e0       	ldi	r23, 0x00	; 0
     448:	83 eb       	ldi	r24, 0xB3	; 179
     44a:	92 e0       	ldi	r25, 0x02	; 2
     44c:	0e 94 8d 03 	call	0x71a	; 0x71a <send>
						printf("Stop is send!\n");
     450:	8c ec       	ldi	r24, 0xCC	; 204
     452:	92 e0       	ldi	r25, 0x02	; 2
     454:	0e 94 a3 0a 	call	0x1546	; 0x1546 <puts>
						send(buffer, dataSize);
						_delay_ms(100);
					}

					// Reset the size of data
					dataSize = 0;
     458:	23 2c       	mov	r2, r3
     45a:	33 c0       	rjmp	.+102    	; 0x4c2 <__LOCK_REGION_LENGTH__+0xc2>
					}

					// Else just send the data
					else
					{
						printf("Returning the data!\r\n");
     45c:	8a ed       	ldi	r24, 0xDA	; 218
     45e:	92 e0       	ldi	r25, 0x02	; 2
     460:	0e 94 a3 0a 	call	0x1546	; 0x1546 <puts>
						send(buffer, dataSize);
     464:	60 e0       	ldi	r22, 0x00	; 0
     466:	70 e0       	ldi	r23, 0x00	; 0
     468:	c4 01       	movw	r24, r8
     46a:	0e 94 8d 03 	call	0x71a	; 0x71a <send>
     46e:	bf e1       	ldi	r27, 0x1F	; 31
     470:	e1 ea       	ldi	r30, 0xA1	; 161
     472:	f7 e0       	ldi	r31, 0x07	; 7
     474:	b1 50       	subi	r27, 0x01	; 1
     476:	e0 40       	sbci	r30, 0x00	; 0
     478:	f0 40       	sbci	r31, 0x00	; 0
     47a:	e1 f7       	brne	.-8      	; 0x474 <__LOCK_REGION_LENGTH__+0x74>
     47c:	00 c0       	rjmp	.+0      	; 0x47e <__LOCK_REGION_LENGTH__+0x7e>
     47e:	00 00       	nop
						_delay_ms(100);
					}

					// Reset the size of data
					dataSize = 0;
     480:	23 2c       	mov	r2, r3
     482:	1f c0       	rjmp	.+62     	; 0x4c2 <__LOCK_REGION_LENGTH__+0xc2>
				}

				else if (buffer[0] == 255)
     484:	d4 01       	movw	r26, r8
     486:	2c 91       	ld	r18, X
     488:	2f 3f       	cpi	r18, 0xFF	; 255
     48a:	d9 f4       	brne	.+54     	; 0x4c2 <__LOCK_REGION_LENGTH__+0xc2>
				{
					printf("Received trashing command!\nTrashing %d bytes data\n", dataSize);
     48c:	9f 93       	push	r25
     48e:	2f 92       	push	r2
     490:	af ee       	ldi	r26, 0xEF	; 239
     492:	b2 e0       	ldi	r27, 0x02	; 2
     494:	bf 93       	push	r27
     496:	af 93       	push	r26
     498:	0e 94 8d 0a 	call	0x151a	; 0x151a <printf>
     49c:	0f 90       	pop	r0
     49e:	0f 90       	pop	r0
     4a0:	0f 90       	pop	r0
     4a2:	0f 90       	pop	r0
     4a4:	0e c0       	rjmp	.+28     	; 0x4c2 <__LOCK_REGION_LENGTH__+0xc2>
				}
			}
		}
		if (socketState == SOCK_CLOSING)
     4a6:	0a 31       	cpi	r16, 0x1A	; 26
     4a8:	39 f4       	brne	.+14     	; 0x4b8 <__LOCK_REGION_LENGTH__+0xb8>
		{
			// free used resources
			printf("Socket Closing...");
     4aa:	df 92       	push	r13
     4ac:	cf 92       	push	r12
     4ae:	0e 94 8d 0a 	call	0x151a	; 0x151a <printf>
     4b2:	0f 90       	pop	r0
     4b4:	0f 90       	pop	r0
     4b6:	0b cf       	rjmp	.-490    	; 0x2ce <main+0xb2>
		}

		if (socketState == SOCK_CLOSE_WAIT)
     4b8:	0c 31       	cpi	r16, 0x1C	; 28
     4ba:	19 f4       	brne	.+6      	; 0x4c2 <__LOCK_REGION_LENGTH__+0xc2>
		{
			// Client waits for the connection to close... Close it
			disconnect();
     4bc:	0e 94 22 03 	call	0x644	; 0x644 <disconnect>
     4c0:	06 cf       	rjmp	.-500    	; 0x2ce <main+0xb2>
		}

		if (socketState == SOCK_LAST_ACK)
     4c2:	0d 31       	cpi	r16, 0x1D	; 29
     4c4:	09 f0       	breq	.+2      	; 0x4c8 <__LOCK_REGION_LENGTH__+0xc8>
     4c6:	03 cf       	rjmp	.-506    	; 0x2ce <main+0xb2>
		{
			// Client has closed the connection. So lets do that to!
			close();
     4c8:	0e 94 2e 03 	call	0x65c	; 0x65c <close>
     4cc:	00 cf       	rjmp	.-512    	; 0x2ce <main+0xb2>
			if (recDataSize > 0) // If there is data
			{
				// Make sure there is data to process
				if (recieve(&buffer[dataSize], recDataSize) <= 0)
				{
					printf("Could not find any data!\n");
     4ce:	81 e9       	ldi	r24, 0x91	; 145
     4d0:	91 e0       	ldi	r25, 0x01	; 1
     4d2:	0e 94 a3 0a 	call	0x1546	; 0x1546 <puts>
		}
		
	}

	return 0;
}
     4d6:	80 e0       	ldi	r24, 0x00	; 0
     4d8:	90 e0       	ldi	r25, 0x00	; 0
     4da:	df 91       	pop	r29
     4dc:	cf 91       	pop	r28
     4de:	1f 91       	pop	r17
     4e0:	0f 91       	pop	r16
     4e2:	ff 90       	pop	r15
     4e4:	ef 90       	pop	r14
     4e6:	df 90       	pop	r13
     4e8:	cf 90       	pop	r12
     4ea:	bf 90       	pop	r11
     4ec:	af 90       	pop	r10
     4ee:	9f 90       	pop	r9
     4f0:	8f 90       	pop	r8
     4f2:	7f 90       	pop	r7
     4f4:	6f 90       	pop	r6
     4f6:	5f 90       	pop	r5
     4f8:	4f 90       	pop	r4
     4fa:	3f 90       	pop	r3
     4fc:	2f 90       	pop	r2
     4fe:	08 95       	ret

00000500 <spiInit>:
#include "Wiznet5100.h"

void spiInit(void)
{
	// MOSI SS and CLK pins set to output (PORTB4, MISO is default 0 = input)
	SPI_DDR = (1<<PORTB3)|(1<<PORTB5)|(1<<PORTB2);  
     500:	8c e2       	ldi	r24, 0x2C	; 44
     502:	84 b9       	out	0x04, r24	; 4
	// CS pin - high = deactivated
	SPI_PORT |= (1<<SPI_CS);  
     504:	2a 9a       	sbi	0x05, 2	; 5
	// Enable SPI, Master Mode 0, set clock rate to fck/2
	SPCR = (1<<SPE)|(1<<MSTR);
     506:	80 e5       	ldi	r24, 0x50	; 80
     508:	8c bd       	out	0x2c, r24	; 44
	SPSR |= (1<<SPI2X);  
     50a:	8d b5       	in	r24, 0x2d	; 45
     50c:	81 60       	ori	r24, 0x01	; 1
     50e:	8d bd       	out	0x2d, r24	; 45
     510:	08 95       	ret

00000512 <SPI_Write8>:

//skriver 8 bit via spi til addr
void SPI_Write8(unsigned int addr,unsigned char data)
{
  // Activate the CS pin by setting it to low
  SPI_PORT &= ~(1<<SPI_CS); 
     512:	2a 98       	cbi	0x05, 2	; 5

  // Start Wiznet W5100 Write OpCode transmission
  SPDR = WIZNET_WRITE_OPCODE;  
     514:	20 ef       	ldi	r18, 0xF0	; 240
     516:	2e bd       	out	0x2e, r18	; 46

  // Wait for transmission complete
  while(!(SPSR & (1<<SPIF)));  
     518:	0d b4       	in	r0, 0x2d	; 45
     51a:	07 fe       	sbrs	r0, 7
     51c:	fd cf       	rjmp	.-6      	; 0x518 <SPI_Write8+0x6>

  // Start Wiznet W5100 Address High Bytes transmission
  SPDR = (addr & 0xFF00) >> 8;  
     51e:	9e bd       	out	0x2e, r25	; 46

  // Wait for transmission complete
  while(!(SPSR & (1<<SPIF)));  
     520:	0d b4       	in	r0, 0x2d	; 45
     522:	07 fe       	sbrs	r0, 7
     524:	fd cf       	rjmp	.-6      	; 0x520 <SPI_Write8+0xe>

  // Start Wiznet W5100 Address Low Bytes transmission
  SPDR = addr & 0x00FF;  
     526:	8e bd       	out	0x2e, r24	; 46

  // Wait for transmission complete
  while(!(SPSR & (1<<SPIF)));   
     528:	0d b4       	in	r0, 0x2d	; 45
     52a:	07 fe       	sbrs	r0, 7
     52c:	fd cf       	rjmp	.-6      	; 0x528 <SPI_Write8+0x16>

  // Start Data transmission
  SPDR = data;  
     52e:	6e bd       	out	0x2e, r22	; 46

  // Wait for transmission complete
  while(!(SPSR & (1<<SPIF))); 
     530:	0d b4       	in	r0, 0x2d	; 45
     532:	07 fe       	sbrs	r0, 7
     534:	fd cf       	rjmp	.-6      	; 0x530 <SPI_Write8+0x1e>
   
  // CS pin is not activated by setting it to high
  SPI_PORT |= (1<<SPI_CS);
     536:	2a 9a       	sbi	0x05, 2	; 5
     538:	08 95       	ret

0000053a <SPI_Read8>:

//Læser 8 bit via spi fra addr.
unsigned char SPI_Read8(unsigned int addr)
{
  // Activate the CS pin by setting it to low
  SPI_PORT &= ~(1<<SPI_CS);  
     53a:	2a 98       	cbi	0x05, 2	; 5

  // Start Wiznet W5100 Read OpCode transmission
  SPDR = WIZNET_READ_OPCODE;  
     53c:	2f e0       	ldi	r18, 0x0F	; 15
     53e:	2e bd       	out	0x2e, r18	; 46

  // Wait for transmission complete
  while(!(SPSR & (1<<SPIF)));  
     540:	0d b4       	in	r0, 0x2d	; 45
     542:	07 fe       	sbrs	r0, 7
     544:	fd cf       	rjmp	.-6      	; 0x540 <SPI_Read8+0x6>

  // Start Wiznet W5100 Address High Bytes transmission
  SPDR = (addr & 0xFF00) >> 8;  
     546:	9e bd       	out	0x2e, r25	; 46

  // Wait for transmission complete
  while(!(SPSR & (1<<SPIF)));  
     548:	0d b4       	in	r0, 0x2d	; 45
     54a:	07 fe       	sbrs	r0, 7
     54c:	fd cf       	rjmp	.-6      	; 0x548 <SPI_Read8+0xe>

  // Start Wiznet W5100 Address Low Bytes transmission
  SPDR = addr & 0x00FF;  
     54e:	8e bd       	out	0x2e, r24	; 46

  // Wait for transmission complete
  while(!(SPSR & (1<<SPIF)));   
     550:	0d b4       	in	r0, 0x2d	; 45
     552:	07 fe       	sbrs	r0, 7
     554:	fd cf       	rjmp	.-6      	; 0x550 <SPI_Read8+0x16>

  // Send Dummy transmission for reading the data
  SPDR = 0x00;  
     556:	1e bc       	out	0x2e, r1	; 46

  // Wait for transmission complete
  while(!(SPSR & (1<<SPIF)));  
     558:	0d b4       	in	r0, 0x2d	; 45
     55a:	07 fe       	sbrs	r0, 7
     55c:	fd cf       	rjmp	.-6      	; 0x558 <SPI_Read8+0x1e>

  // CS pin is not activated by setting it to high
  SPI_PORT |= (1<<SPI_CS);  
     55e:	2a 9a       	sbi	0x05, 2	; 5

  // RX reads the received data from the SPI data register and returns it
  return(SPDR);
     560:	8e b5       	in	r24, 0x2e	; 46
}
     562:	08 95       	ret

00000564 <SPI_Write16>:

//Skriver 16 bit til spi på addr og addr + 1
void SPI_Write16(unsigned int addr,uint16_t data)
{
     564:	1f 93       	push	r17
     566:	cf 93       	push	r28
     568:	df 93       	push	r29
     56a:	ec 01       	movw	r28, r24
     56c:	16 2f       	mov	r17, r22
     56e:	67 2f       	mov	r22, r23
	
	SPI_Write8(addr, (data & 0xFF00) >> 8);
     570:	0e 94 89 02 	call	0x512	; 0x512 <SPI_Write8>
	SPI_Write8(addr + 1, (data & 0xFF));
     574:	61 2f       	mov	r22, r17
     576:	ce 01       	movw	r24, r28
     578:	01 96       	adiw	r24, 0x01	; 1
     57a:	0e 94 89 02 	call	0x512	; 0x512 <SPI_Write8>
}
     57e:	df 91       	pop	r29
     580:	cf 91       	pop	r28
     582:	1f 91       	pop	r17
     584:	08 95       	ret

00000586 <SPI_Read16>:

//læser 16 bit fra addr og addr + 1
uint16_t SPI_Read16(unsigned int addr)
{
     586:	0f 93       	push	r16
     588:	1f 93       	push	r17
     58a:	cf 93       	push	r28
     58c:	df 93       	push	r29
     58e:	8c 01       	movw	r16, r24
	
	uint16_t retval = 0;

	//retval = (SPI_Read8(addr) << 8) | (0xFF &  SPI_Read8(addr +1));
	retval = SPI_Read8(addr);
     590:	0e 94 9d 02 	call	0x53a	; 0x53a <SPI_Read8>
     594:	c8 2f       	mov	r28, r24
     596:	d0 e0       	ldi	r29, 0x00	; 0
	retval = (((retval & 0x00ff)<<8) + SPI_Read8(addr + 1));
     598:	dc 2f       	mov	r29, r28
     59a:	cc 27       	eor	r28, r28
     59c:	c8 01       	movw	r24, r16
     59e:	01 96       	adiw	r24, 0x01	; 1
     5a0:	0e 94 9d 02 	call	0x53a	; 0x53a <SPI_Read8>
	
	return retval;
}
     5a4:	9e 01       	movw	r18, r28
     5a6:	28 0f       	add	r18, r24
     5a8:	31 1d       	adc	r19, r1
     5aa:	c9 01       	movw	r24, r18
     5ac:	df 91       	pop	r29
     5ae:	cf 91       	pop	r28
     5b0:	1f 91       	pop	r17
     5b2:	0f 91       	pop	r16
     5b4:	08 95       	ret

000005b6 <uart_flush>:
#define BAUD_RATE 4800	// Seriel hastighed
#define F_CPU 25000000UL

void uart_flush(void)
{
  unsigned char dummy;  while (UCSR0A & (1<<RXC0)) dummy = UDR0;
     5b6:	80 91 c0 00 	lds	r24, 0x00C0	; 0x8000c0 <__TEXT_REGION_LENGTH__+0x7e00c0>
     5ba:	88 23       	and	r24, r24
     5bc:	44 f4       	brge	.+16     	; 0x5ce <uart_flush+0x18>
     5be:	a6 ec       	ldi	r26, 0xC6	; 198
     5c0:	b0 e0       	ldi	r27, 0x00	; 0
     5c2:	e0 ec       	ldi	r30, 0xC0	; 192
     5c4:	f0 e0       	ldi	r31, 0x00	; 0
     5c6:	8c 91       	ld	r24, X
     5c8:	80 81       	ld	r24, Z
     5ca:	88 23       	and	r24, r24
     5cc:	e4 f3       	brlt	.-8      	; 0x5c6 <uart_flush+0x10>
     5ce:	08 95       	ret

000005d0 <uart_init>:
}


void uart_init(void)
{
  UBRR0H = (((F_CPU/BAUD_RATE)/25)-1)>>8;	// set baud rate
     5d0:	10 92 c5 00 	sts	0x00C5, r1	; 0x8000c5 <__TEXT_REGION_LENGTH__+0x7e00c5>
  UBRR0L = (((F_CPU/BAUD_RATE)/25)-1);
     5d4:	8f ec       	ldi	r24, 0xCF	; 207
     5d6:	80 93 c4 00 	sts	0x00C4, r24	; 0x8000c4 <__TEXT_REGION_LENGTH__+0x7e00c4>
  UCSR0B = (1<<RXEN0)|(1<<TXEN0); 		// enable Rx & Tx
     5da:	88 e1       	ldi	r24, 0x18	; 24
     5dc:	80 93 c1 00 	sts	0x00C1, r24	; 0x8000c1 <__TEXT_REGION_LENGTH__+0x7e00c1>
  UCSR0C=  (1<<UCSZ01)|(1<<UCSZ00);  	       // config USART; 8N1
     5e0:	86 e0       	ldi	r24, 0x06	; 6
     5e2:	80 93 c2 00 	sts	0x00C2, r24	; 0x8000c2 <__TEXT_REGION_LENGTH__+0x7e00c2>
  
  uart_flush();
     5e6:	0e 94 db 02 	call	0x5b6	; 0x5b6 <uart_flush>
     5ea:	08 95       	ret

000005ec <uart_putch>:
} 

int uart_putch(char ch,FILE *stream)
{
     5ec:	cf 93       	push	r28
     5ee:	c8 2f       	mov	r28, r24
    if (ch == '\n')
     5f0:	8a 30       	cpi	r24, 0x0A	; 10
     5f2:	19 f4       	brne	.+6      	; 0x5fa <uart_putch+0xe>
    	uart_putch('\r', stream); 
     5f4:	8d e0       	ldi	r24, 0x0D	; 13
     5f6:	0e 94 f6 02 	call	0x5ec	; 0x5ec <uart_putch>

	while (!(UCSR0A & (1<<UDRE0)));
     5fa:	e0 ec       	ldi	r30, 0xC0	; 192
     5fc:	f0 e0       	ldi	r31, 0x00	; 0
     5fe:	90 81       	ld	r25, Z
     600:	95 ff       	sbrs	r25, 5
     602:	fd cf       	rjmp	.-6      	; 0x5fe <uart_putch+0x12>
    UDR0=ch;   
     604:	c0 93 c6 00 	sts	0x00C6, r28	; 0x8000c6 <__TEXT_REGION_LENGTH__+0x7e00c6>

	return 0;
}
     608:	80 e0       	ldi	r24, 0x00	; 0
     60a:	90 e0       	ldi	r25, 0x00	; 0
     60c:	cf 91       	pop	r28
     60e:	08 95       	ret

00000610 <uart_getch>:

int uart_getch(FILE *stream)
{
     610:	cf 93       	push	r28
     612:	bc 01       	movw	r22, r24
   unsigned char ch;   
   while (!(UCSR0A & (1<<RXC0)));
     614:	e0 ec       	ldi	r30, 0xC0	; 192
     616:	f0 e0       	ldi	r31, 0x00	; 0
     618:	90 81       	ld	r25, Z
     61a:	99 23       	and	r25, r25
     61c:	ec f7       	brge	.-6      	; 0x618 <uart_getch+0x8>
   ch=UDR0;  
     61e:	c0 91 c6 00 	lds	r28, 0x00C6	; 0x8000c6 <__TEXT_REGION_LENGTH__+0x7e00c6>
   uart_putch(ch,stream);       
     622:	8c 2f       	mov	r24, r28
     624:	0e 94 f6 02 	call	0x5ec	; 0x5ec <uart_putch>

   return ch;
}
     628:	8c 2f       	mov	r24, r28
     62a:	90 e0       	ldi	r25, 0x00	; 0
     62c:	cf 91       	pop	r28
     62e:	08 95       	ret

00000630 <getSocketState>:
#include "nic_settings.h"
#include "spi.h"

uint8_t getSocketState(void)
{
	uint8_t state = SPI_Read8(S0_SR);
     630:	83 e0       	ldi	r24, 0x03	; 3
     632:	94 e0       	ldi	r25, 0x04	; 4
     634:	0e 94 9d 02 	call	0x53a	; 0x53a <SPI_Read8>
	// Læser SR for at få status
	
	return state;
}
     638:	08 95       	ret

0000063a <getAvailableData>:
uint16_t getAvailableData(void)
{
   uint16_t dataSize = 0;
	
   //Henter størrelsen på Datasegmentet for den aktuelle pakke
   dataSize = SPI_Read16(S0_RX_RSR);
     63a:	86 e2       	ldi	r24, 0x26	; 38
     63c:	94 e0       	ldi	r25, 0x04	; 4
     63e:	0e 94 c3 02 	call	0x586	; 0x586 <SPI_Read16>
	
   return dataSize;
}
     642:	08 95       	ret

00000644 <disconnect>:

void disconnect(void)
{
	//Sender disconnect command 
	SPI_Write8(S0_CR, CR_DISCON);
     644:	68 e0       	ldi	r22, 0x08	; 8
     646:	81 e0       	ldi	r24, 0x01	; 1
     648:	94 e0       	ldi	r25, 0x04	; 4
     64a:	0e 94 89 02 	call	0x512	; 0x512 <SPI_Write8>
	// Venter på at den fuldfører.
	while((char)SPI_Read8(S0_CR));
     64e:	81 e0       	ldi	r24, 0x01	; 1
     650:	94 e0       	ldi	r25, 0x04	; 4
     652:	0e 94 9d 02 	call	0x53a	; 0x53a <SPI_Read8>
     656:	81 11       	cpse	r24, r1
     658:	fa cf       	rjmp	.-12     	; 0x64e <disconnect+0xa>
}
     65a:	08 95       	ret

0000065c <close>:
uint8_t close(void)
{
	uint8_t status = 0;
	
	//Sender close command 
	SPI_Write8(S0_CR, CR_CLOSE);
     65c:	60 e1       	ldi	r22, 0x10	; 16
     65e:	81 e0       	ldi	r24, 0x01	; 1
     660:	94 e0       	ldi	r25, 0x04	; 4
     662:	0e 94 89 02 	call	0x512	; 0x512 <SPI_Write8>
	
	// Venter på at den fuldfører.
	while((char)SPI_Read8(S0_CR));
     666:	81 e0       	ldi	r24, 0x01	; 1
     668:	94 e0       	ldi	r25, 0x04	; 4
     66a:	0e 94 9d 02 	call	0x53a	; 0x53a <SPI_Read8>
     66e:	81 11       	cpse	r24, r1
     670:	fa cf       	rjmp	.-12     	; 0x666 <close+0xa>
	
	// Checker for om socket er lukket
	if (SPI_Read8(S0_MR) != SOCK_CLOSED)
     672:	80 e0       	ldi	r24, 0x00	; 0
     674:	94 e0       	ldi	r25, 0x04	; 4
     676:	0e 94 9d 02 	call	0x53a	; 0x53a <SPI_Read8>
     67a:	91 e0       	ldi	r25, 0x01	; 1
     67c:	81 11       	cpse	r24, r1
     67e:	01 c0       	rjmp	.+2      	; 0x682 <close+0x26>
     680:	90 e0       	ldi	r25, 0x00	; 0
	{
		//Hvis ikke indiker dette med retur værdi
		status = 1;
	}
	return status;
}
     682:	89 2f       	mov	r24, r25
     684:	08 95       	ret

00000686 <listen>:

uint8_t listen(void)
{
	uint8_t status = 0;
	
	if (((char)SPI_Read8(S0_SR)) == SOCK_INIT) // Vi Socket er initieret, vi kan starte en listen
     686:	83 e0       	ldi	r24, 0x03	; 3
     688:	94 e0       	ldi	r25, 0x04	; 4
     68a:	0e 94 9d 02 	call	0x53a	; 0x53a <SPI_Read8>
     68e:	83 31       	cpi	r24, 0x13	; 19
     690:	a1 f4       	brne	.+40     	; 0x6ba <listen+0x34>
	{
		// Send listen command
		SPI_Write8(S0_CR, CR_LISTEN);
     692:	62 e0       	ldi	r22, 0x02	; 2
     694:	81 e0       	ldi	r24, 0x01	; 1
     696:	94 e0       	ldi	r25, 0x04	; 4
     698:	0e 94 89 02 	call	0x512	; 0x512 <SPI_Write8>
		
		// Venter på at den fuldfører.
		while((char)SPI_Read8(S0_CR));
     69c:	81 e0       	ldi	r24, 0x01	; 1
     69e:	94 e0       	ldi	r25, 0x04	; 4
     6a0:	0e 94 9d 02 	call	0x53a	; 0x53a <SPI_Read8>
     6a4:	81 11       	cpse	r24, r1
     6a6:	fa cf       	rjmp	.-12     	; 0x69c <listen+0x16>
		
		// Checker for om vi er i listen state
		if (SPI_Read8(S0_SR) == SOCK_LISTEN)
     6a8:	83 e0       	ldi	r24, 0x03	; 3
     6aa:	94 e0       	ldi	r25, 0x04	; 4
     6ac:	0e 94 9d 02 	call	0x53a	; 0x53a <SPI_Read8>
     6b0:	91 e0       	ldi	r25, 0x01	; 1
     6b2:	84 31       	cpi	r24, 0x14	; 20
     6b4:	19 f0       	breq	.+6      	; 0x6bc <listen+0x36>
     6b6:	90 e0       	ldi	r25, 0x00	; 0
     6b8:	01 c0       	rjmp	.+2      	; 0x6bc <listen+0x36>
	return status;
}

uint8_t listen(void)
{
	uint8_t status = 0;
     6ba:	90 e0       	ldi	r25, 0x00	; 0
		{
			 // (1) Der var fejl, luk den pågældende socket igen.
		}
	}
	return status;	
}
     6bc:	89 2f       	mov	r24, r25
     6be:	08 95       	ret

000006c0 <openSocket>:

uint8_t openSocket(uint8_t eth_protocol, uint16_t tcp_port)
{
     6c0:	1f 93       	push	r17
     6c2:	cf 93       	push	r28
     6c4:	df 93       	push	r29
     6c6:	18 2f       	mov	r17, r24
     6c8:	eb 01       	movw	r28, r22
	uint8_t status = 0;
	
	// Kigger først efter om den skulle være åben!
	if (((char)SPI_Read8(S0_MR)) != SOCK_CLOSED)
     6ca:	80 e0       	ldi	r24, 0x00	; 0
     6cc:	94 e0       	ldi	r25, 0x04	; 4
     6ce:	0e 94 9d 02 	call	0x53a	; 0x53a <SPI_Read8>
     6d2:	81 11       	cpse	r24, r1
	{
		close();
     6d4:	0e 94 2e 03 	call	0x65c	; 0x65c <close>
	}
	
	// Angiv protocol ud fra #defines i Wiznet5100.h)
	SPI_Write8(S0_MR, eth_protocol);
     6d8:	61 2f       	mov	r22, r17
     6da:	80 e0       	ldi	r24, 0x00	; 0
     6dc:	94 e0       	ldi	r25, 0x04	; 4
     6de:	0e 94 89 02 	call	0x512	; 0x512 <SPI_Write8>

	// Angiv port
	SPI_Write16(S0_PORT, tcp_port);	
     6e2:	be 01       	movw	r22, r28
     6e4:	84 e0       	ldi	r24, 0x04	; 4
     6e6:	94 e0       	ldi	r25, 0x04	; 4
     6e8:	0e 94 b2 02 	call	0x564	; 0x564 <SPI_Write16>

	// Åbner socket'en
	SPI_Write8(S0_CR, CR_OPEN);
     6ec:	61 e0       	ldi	r22, 0x01	; 1
     6ee:	81 e0       	ldi	r24, 0x01	; 1
     6f0:	94 e0       	ldi	r25, 0x04	; 4
     6f2:	0e 94 89 02 	call	0x512	; 0x512 <SPI_Write8>

	//Venter på at den åbner	
	while (((char)SPI_Read8(S0_CR)));	
     6f6:	81 e0       	ldi	r24, 0x01	; 1
     6f8:	94 e0       	ldi	r25, 0x04	; 4
     6fa:	0e 94 9d 02 	call	0x53a	; 0x53a <SPI_Read8>
     6fe:	81 11       	cpse	r24, r1
     700:	fa cf       	rjmp	.-12     	; 0x6f6 <openSocket+0x36>
	
	if (SPI_Read8(S0_MR) == SOCK_CLOSED)
     702:	80 e0       	ldi	r24, 0x00	; 0
     704:	94 e0       	ldi	r25, 0x04	; 4
     706:	0e 94 9d 02 	call	0x53a	; 0x53a <SPI_Read8>
     70a:	91 e0       	ldi	r25, 0x01	; 1
     70c:	81 11       	cpse	r24, r1
     70e:	90 e0       	ldi	r25, 0x00	; 0
	{
		status = 1; // Sætter status til andet end 0, for at indikere fejl.
	}
	return status;
}
     710:	89 2f       	mov	r24, r25
     712:	df 91       	pop	r29
     714:	cf 91       	pop	r28
     716:	1f 91       	pop	r17
     718:	08 95       	ret

0000071a <send>:

uint16_t send(const uint8_t *buf, uint16_t bufLen)
{
     71a:	af 92       	push	r10
     71c:	bf 92       	push	r11
     71e:	cf 92       	push	r12
     720:	df 92       	push	r13
     722:	ef 92       	push	r14
     724:	ff 92       	push	r15
     726:	0f 93       	push	r16
     728:	1f 93       	push	r17
     72a:	cf 93       	push	r28
     72c:	df 93       	push	r29
     72e:	7c 01       	movw	r14, r24
     730:	8b 01       	movw	r16, r22
	uint16_t offadr, realadr, txSize, timeout;
		
	if(bufLen <= 0)
     732:	67 2b       	or	r22, r23
     734:	09 f0       	breq	.+2      	; 0x738 <send+0x1e>
     736:	43 c0       	rjmp	.+134    	; 0x7be <send+0xa4>
     738:	3f c0       	rjmp	.+126    	; 0x7b8 <send+0x9e>
	// Loopet kigger efter om der er plads til at sende mere.
	// Hvis denne fejler 1000 gange... Laaaaaang tid... 
	// Så lukker vi forbindelsen og frigør den pågældende socket.
	do
	{
		txSize = SPI_Read16(S0_TX_FSR);
     73a:	80 e2       	ldi	r24, 0x20	; 32
     73c:	94 e0       	ldi	r25, 0x04	; 4
     73e:	0e 94 c3 02 	call	0x586	; 0x586 <SPI_Read16>
     742:	21 97       	sbiw	r28, 0x01	; 1
		
		if(timeout++ > 1000)
     744:	61 f4       	brne	.+24     	; 0x75e <send+0x44>
		{
			// Luk forbindelsen!
			SPI_Write8(S0_CR, CR_CLOSE);
     746:	60 e1       	ldi	r22, 0x10	; 16
     748:	81 e0       	ldi	r24, 0x01	; 1
     74a:	94 e0       	ldi	r25, 0x04	; 4
     74c:	0e 94 89 02 	call	0x512	; 0x512 <SPI_Write8>
			while((char)SPI_Read8(S0_CR));
     750:	81 e0       	ldi	r24, 0x01	; 1
     752:	94 e0       	ldi	r25, 0x04	; 4
     754:	0e 94 9d 02 	call	0x53a	; 0x53a <SPI_Read8>
     758:	81 11       	cpse	r24, r1
     75a:	fa cf       	rjmp	.-12     	; 0x750 <send+0x36>
     75c:	37 c0       	rjmp	.+110    	; 0x7cc <send+0xb2>

			return 0;
		}
	} while (txSize<bufLen);
     75e:	80 17       	cp	r24, r16
     760:	91 07       	cpc	r25, r17
     762:	58 f3       	brcs	.-42     	; 0x73a <send+0x20>

	
	// Finder offset adressen vi skal skrive til.
	offadr = SPI_Read16(S0_TX_WR);
     764:	84 e2       	ldi	r24, 0x24	; 36
     766:	94 e0       	ldi	r25, 0x04	; 4
     768:	0e 94 c3 02 	call	0x586	; 0x586 <SPI_Read16>
     76c:	5c 01       	movw	r10, r24
     76e:	6c 01       	movw	r12, r24
     770:	e8 01       	movw	r28, r16
	
	while (bufLen)
	{
		 bufLen--;
     772:	21 97       	sbiw	r28, 0x01	; 1
		 
		 realadr = TXBUFADDR + (offadr & TX_BUF_MASK);
     774:	c6 01       	movw	r24, r12
     776:	97 70       	andi	r25, 0x07	; 7
		 
		 SPI_Write8(realadr, *buf);
     778:	f7 01       	movw	r30, r14
     77a:	61 91       	ld	r22, Z+
     77c:	7f 01       	movw	r14, r30
     77e:	90 5c       	subi	r25, 0xC0	; 192
     780:	0e 94 89 02 	call	0x512	; 0x512 <SPI_Write8>
		 offadr++;
     784:	ff ef       	ldi	r31, 0xFF	; 255
     786:	cf 1a       	sub	r12, r31
     788:	df 0a       	sbc	r13, r31

	
	// Finder offset adressen vi skal skrive til.
	offadr = SPI_Read16(S0_TX_WR);
	
	while (bufLen)
     78a:	20 97       	sbiw	r28, 0x00	; 0
     78c:	91 f7       	brne	.-28     	; 0x772 <send+0x58>
     78e:	b5 01       	movw	r22, r10
     790:	60 0f       	add	r22, r16
     792:	71 1f       	adc	r23, r17
		 offadr++;
		 buf++;
	}
	
	// Opdaterer netkortets buffer pointer
	SPI_Write16(S0_TX_WR, offadr);
     794:	84 e2       	ldi	r24, 0x24	; 36
     796:	94 e0       	ldi	r25, 0x04	; 4
     798:	0e 94 b2 02 	call	0x564	; 0x564 <SPI_Write16>
	
	//sender "Send" command til NIC
	SPI_Write8(S0_CR, CR_SEND);
     79c:	60 e2       	ldi	r22, 0x20	; 32
     79e:	81 e0       	ldi	r24, 0x01	; 1
     7a0:	94 e0       	ldi	r25, 0x04	; 4
     7a2:	0e 94 89 02 	call	0x512	; 0x512 <SPI_Write8>
	
	//Venter på at der er sendt.
	while((char)SPI_Read8(S0_CR));
     7a6:	81 e0       	ldi	r24, 0x01	; 1
     7a8:	94 e0       	ldi	r25, 0x04	; 4
     7aa:	0e 94 9d 02 	call	0x53a	; 0x53a <SPI_Read8>
     7ae:	81 11       	cpse	r24, r1
     7b0:	fa cf       	rjmp	.-12     	; 0x7a6 <send+0x8c>
	
	return 1;
     7b2:	c1 e0       	ldi	r28, 0x01	; 1
     7b4:	d0 e0       	ldi	r29, 0x00	; 0
     7b6:	0a c0       	rjmp	.+20     	; 0x7cc <send+0xb2>
{
	uint16_t offadr, realadr, txSize, timeout;
		
	if(bufLen <= 0)
	{
		return 0;
     7b8:	c0 e0       	ldi	r28, 0x00	; 0
     7ba:	d0 e0       	ldi	r29, 0x00	; 0
     7bc:	07 c0       	rjmp	.+14     	; 0x7cc <send+0xb2>
	// Loopet kigger efter om der er plads til at sende mere.
	// Hvis denne fejler 1000 gange... Laaaaaang tid... 
	// Så lukker vi forbindelsen og frigør den pågældende socket.
	do
	{
		txSize = SPI_Read16(S0_TX_FSR);
     7be:	80 e2       	ldi	r24, 0x20	; 32
     7c0:	94 e0       	ldi	r25, 0x04	; 4
     7c2:	0e 94 c3 02 	call	0x586	; 0x586 <SPI_Read16>
     7c6:	c9 ee       	ldi	r28, 0xE9	; 233
     7c8:	d3 e0       	ldi	r29, 0x03	; 3
     7ca:	c9 cf       	rjmp	.-110    	; 0x75e <send+0x44>
	
	//Venter på at der er sendt.
	while((char)SPI_Read8(S0_CR));
	
	return 1;
}
     7cc:	ce 01       	movw	r24, r28
     7ce:	df 91       	pop	r29
     7d0:	cf 91       	pop	r28
     7d2:	1f 91       	pop	r17
     7d4:	0f 91       	pop	r16
     7d6:	ff 90       	pop	r15
     7d8:	ef 90       	pop	r14
     7da:	df 90       	pop	r13
     7dc:	cf 90       	pop	r12
     7de:	bf 90       	pop	r11
     7e0:	af 90       	pop	r10
     7e2:	08 95       	ret

000007e4 <recieve>:

uint16_t recieve(uint8_t *buf, uint16_t bufLen)
{
     7e4:	af 92       	push	r10
     7e6:	bf 92       	push	r11
     7e8:	cf 92       	push	r12
     7ea:	df 92       	push	r13
     7ec:	ef 92       	push	r14
     7ee:	ff 92       	push	r15
     7f0:	0f 93       	push	r16
     7f2:	1f 93       	push	r17
     7f4:	cf 93       	push	r28
     7f6:	df 93       	push	r29
     7f8:	7c 01       	movw	r14, r24
     7fa:	6b 01       	movw	r12, r22
	uint16_t offAddr, realAddr;

	// hvis angive længde er større end den angiven intern array længde i MCU'en
	// afkorter vi den!  ikke ret pænt...
	if (bufLen > MAX_BUF)
     7fc:	61 38       	cpi	r22, 0x81	; 129
     7fe:	71 05       	cpc	r23, r1
     800:	50 f5       	brcc	.+84     	; 0x856 <recieve+0x72>
	{
		bufLen = MAX_BUF -2;
	}
	
	// 1a Læs Read pointer fra nic
	offAddr = SPI_Read16(S0_RX_RD);
     802:	88 e2       	ldi	r24, 0x28	; 40
     804:	94 e0       	ldi	r25, 0x04	; 4
     806:	0e 94 c3 02 	call	0x586	; 0x586 <SPI_Read16>
     80a:	5c 01       	movw	r10, r24

	// 1b Læs alt data. 
	while (bufLen)
     80c:	c1 14       	cp	r12, r1
     80e:	d1 04       	cpc	r13, r1
     810:	89 f0       	breq	.+34     	; 0x834 <recieve+0x50>

	// hvis angive længde er større end den angiven intern array længde i MCU'en
	// afkorter vi den!  ikke ret pænt...
	if (bufLen > MAX_BUF)
	{
		bufLen = MAX_BUF -2;
     812:	85 01       	movw	r16, r10
     814:	e6 01       	movw	r28, r12
	offAddr = SPI_Read16(S0_RX_RD);

	// 1b Læs alt data. 
	while (bufLen)
	{
		bufLen--;
     816:	21 97       	sbiw	r28, 0x01	; 1
		realAddr = RXBUFADDR +(offAddr & RX_BUF_MASK);
     818:	c8 01       	movw	r24, r16
     81a:	97 70       	andi	r25, 0x07	; 7
		*buf = SPI_Read8(realAddr);
     81c:	90 5a       	subi	r25, 0xA0	; 160
     81e:	0e 94 9d 02 	call	0x53a	; 0x53a <SPI_Read8>
     822:	f7 01       	movw	r30, r14
     824:	81 93       	st	Z+, r24
     826:	7f 01       	movw	r14, r30
		offAddr++;
     828:	0f 5f       	subi	r16, 0xFF	; 255
     82a:	1f 4f       	sbci	r17, 0xFF	; 255
	
	// 1a Læs Read pointer fra nic
	offAddr = SPI_Read16(S0_RX_RD);

	// 1b Læs alt data. 
	while (bufLen)
     82c:	20 97       	sbiw	r28, 0x00	; 0
     82e:	99 f7       	brne	.-26     	; 0x816 <recieve+0x32>
     830:	ac 0c       	add	r10, r12
     832:	bd 1c       	adc	r11, r13
		offAddr++;
		buf++;
	}
		
	// 2 Opdaterer vores NIC, så adr. pointer passer med den næste pakke i nic mem.
	SPI_Write16(S0_RX_RD, offAddr);
     834:	b5 01       	movw	r22, r10
     836:	88 e2       	ldi	r24, 0x28	; 40
     838:	94 e0       	ldi	r25, 0x04	; 4
     83a:	0e 94 b2 02 	call	0x564	; 0x564 <SPI_Write16>
	
	// 3 Indikerer at vi har modtaget en pakke.
	SPI_Write8(S0_CR, CR_RECV);
     83e:	60 e4       	ldi	r22, 0x40	; 64
     840:	81 e0       	ldi	r24, 0x01	; 1
     842:	94 e0       	ldi	r25, 0x04	; 4
     844:	0e 94 89 02 	call	0x512	; 0x512 <SPI_Write8>
	while((char)SPI_Read8(S0_CR));
     848:	81 e0       	ldi	r24, 0x01	; 1
     84a:	94 e0       	ldi	r25, 0x04	; 4
     84c:	0e 94 9d 02 	call	0x53a	; 0x53a <SPI_Read8>
     850:	81 11       	cpse	r24, r1
     852:	fa cf       	rjmp	.-12     	; 0x848 <recieve+0x64>
     854:	0b c0       	rjmp	.+22     	; 0x86c <recieve+0x88>
	{
		bufLen = MAX_BUF -2;
	}
	
	// 1a Læs Read pointer fra nic
	offAddr = SPI_Read16(S0_RX_RD);
     856:	88 e2       	ldi	r24, 0x28	; 40
     858:	94 e0       	ldi	r25, 0x04	; 4
     85a:	0e 94 c3 02 	call	0x586	; 0x586 <SPI_Read16>
     85e:	5c 01       	movw	r10, r24

	// hvis angive længde er større end den angiven intern array længde i MCU'en
	// afkorter vi den!  ikke ret pænt...
	if (bufLen > MAX_BUF)
	{
		bufLen = MAX_BUF -2;
     860:	0f 2e       	mov	r0, r31
     862:	fe e7       	ldi	r31, 0x7E	; 126
     864:	cf 2e       	mov	r12, r31
     866:	d1 2c       	mov	r13, r1
     868:	f0 2d       	mov	r31, r0
     86a:	d3 cf       	rjmp	.-90     	; 0x812 <recieve+0x2e>
	// 3 Indikerer at vi har modtaget en pakke.
	SPI_Write8(S0_CR, CR_RECV);
	while((char)SPI_Read8(S0_CR));
	
	return 1;
}
     86c:	81 e0       	ldi	r24, 0x01	; 1
     86e:	90 e0       	ldi	r25, 0x00	; 0
     870:	df 91       	pop	r29
     872:	cf 91       	pop	r28
     874:	1f 91       	pop	r17
     876:	0f 91       	pop	r16
     878:	ff 90       	pop	r15
     87a:	ef 90       	pop	r14
     87c:	df 90       	pop	r13
     87e:	cf 90       	pop	r12
     880:	bf 90       	pop	r11
     882:	af 90       	pop	r10
     884:	08 95       	ret

00000886 <WizInit>:

void WizInit(void)
{
     886:	cf 93       	push	r28
     888:	df 93       	push	r29
	// Basic ethernet Setup
  
	// MR = 0b10000000; Soft Reset...
	SPI_Write8(MR,0x80); 
     88a:	60 e8       	ldi	r22, 0x80	; 128
     88c:	80 e0       	ldi	r24, 0x00	; 0
     88e:	90 e0       	ldi	r25, 0x00	; 0
     890:	0e 94 89 02 	call	0x512	; 0x512 <SPI_Write8>

	// Gateway addr
	SPI_Write8(GAR + 0,gtw_addr[0]);
     894:	ce e0       	ldi	r28, 0x0E	; 14
     896:	d1 e0       	ldi	r29, 0x01	; 1
     898:	68 81       	ld	r22, Y
     89a:	81 e0       	ldi	r24, 0x01	; 1
     89c:	90 e0       	ldi	r25, 0x00	; 0
     89e:	0e 94 89 02 	call	0x512	; 0x512 <SPI_Write8>
	SPI_Write8(GAR + 1,gtw_addr[1]);
     8a2:	69 81       	ldd	r22, Y+1	; 0x01
     8a4:	82 e0       	ldi	r24, 0x02	; 2
     8a6:	90 e0       	ldi	r25, 0x00	; 0
     8a8:	0e 94 89 02 	call	0x512	; 0x512 <SPI_Write8>
	SPI_Write8(GAR + 2,gtw_addr[2]);
     8ac:	6a 81       	ldd	r22, Y+2	; 0x02
     8ae:	83 e0       	ldi	r24, 0x03	; 3
     8b0:	90 e0       	ldi	r25, 0x00	; 0
     8b2:	0e 94 89 02 	call	0x512	; 0x512 <SPI_Write8>
	SPI_Write8(GAR + 3,gtw_addr[3]);
     8b6:	6b 81       	ldd	r22, Y+3	; 0x03
     8b8:	84 e0       	ldi	r24, 0x04	; 4
     8ba:	90 e0       	ldi	r25, 0x00	; 0
     8bc:	0e 94 89 02 	call	0x512	; 0x512 <SPI_Write8>

	// MAC addr
	SPI_Write8(SAR + 0,mac_addr[0]);
     8c0:	ca e1       	ldi	r28, 0x1A	; 26
     8c2:	d1 e0       	ldi	r29, 0x01	; 1
     8c4:	68 81       	ld	r22, Y
     8c6:	89 e0       	ldi	r24, 0x09	; 9
     8c8:	90 e0       	ldi	r25, 0x00	; 0
     8ca:	0e 94 89 02 	call	0x512	; 0x512 <SPI_Write8>
	SPI_Write8(SAR + 1,mac_addr[1]);
     8ce:	69 81       	ldd	r22, Y+1	; 0x01
     8d0:	8a e0       	ldi	r24, 0x0A	; 10
     8d2:	90 e0       	ldi	r25, 0x00	; 0
     8d4:	0e 94 89 02 	call	0x512	; 0x512 <SPI_Write8>
	SPI_Write8(SAR + 2,mac_addr[2]);
     8d8:	6a 81       	ldd	r22, Y+2	; 0x02
     8da:	8b e0       	ldi	r24, 0x0B	; 11
     8dc:	90 e0       	ldi	r25, 0x00	; 0
     8de:	0e 94 89 02 	call	0x512	; 0x512 <SPI_Write8>
	SPI_Write8(SAR + 3,mac_addr[3]);
     8e2:	6b 81       	ldd	r22, Y+3	; 0x03
     8e4:	8c e0       	ldi	r24, 0x0C	; 12
     8e6:	90 e0       	ldi	r25, 0x00	; 0
     8e8:	0e 94 89 02 	call	0x512	; 0x512 <SPI_Write8>
	SPI_Write8(SAR + 4,mac_addr[4]);
     8ec:	6c 81       	ldd	r22, Y+4	; 0x04
     8ee:	8d e0       	ldi	r24, 0x0D	; 13
     8f0:	90 e0       	ldi	r25, 0x00	; 0
     8f2:	0e 94 89 02 	call	0x512	; 0x512 <SPI_Write8>
	SPI_Write8(SAR + 5,mac_addr[5]);
     8f6:	6d 81       	ldd	r22, Y+5	; 0x05
     8f8:	8e e0       	ldi	r24, 0x0E	; 14
     8fa:	90 e0       	ldi	r25, 0x00	; 0
     8fc:	0e 94 89 02 	call	0x512	; 0x512 <SPI_Write8>

	// Subnet mask
	SPI_Write8(SUBR + 0,sub_mask[0]);
     900:	c2 e1       	ldi	r28, 0x12	; 18
     902:	d1 e0       	ldi	r29, 0x01	; 1
     904:	68 81       	ld	r22, Y
     906:	85 e0       	ldi	r24, 0x05	; 5
     908:	90 e0       	ldi	r25, 0x00	; 0
     90a:	0e 94 89 02 	call	0x512	; 0x512 <SPI_Write8>
	SPI_Write8(SUBR + 1,sub_mask[1]);
     90e:	69 81       	ldd	r22, Y+1	; 0x01
     910:	86 e0       	ldi	r24, 0x06	; 6
     912:	90 e0       	ldi	r25, 0x00	; 0
     914:	0e 94 89 02 	call	0x512	; 0x512 <SPI_Write8>
	SPI_Write8(SUBR + 2,sub_mask[2]);
     918:	6a 81       	ldd	r22, Y+2	; 0x02
     91a:	87 e0       	ldi	r24, 0x07	; 7
     91c:	90 e0       	ldi	r25, 0x00	; 0
     91e:	0e 94 89 02 	call	0x512	; 0x512 <SPI_Write8>
	SPI_Write8(SUBR + 3,sub_mask[3]);
     922:	6b 81       	ldd	r22, Y+3	; 0x03
     924:	88 e0       	ldi	r24, 0x08	; 8
     926:	90 e0       	ldi	r25, 0x00	; 0
     928:	0e 94 89 02 	call	0x512	; 0x512 <SPI_Write8>

	//IP Addr
	SPI_Write8(SIPR + 0,ip_addr[0]);
     92c:	c6 e1       	ldi	r28, 0x16	; 22
     92e:	d1 e0       	ldi	r29, 0x01	; 1
     930:	68 81       	ld	r22, Y
     932:	8f e0       	ldi	r24, 0x0F	; 15
     934:	90 e0       	ldi	r25, 0x00	; 0
     936:	0e 94 89 02 	call	0x512	; 0x512 <SPI_Write8>
	SPI_Write8(SIPR + 1,ip_addr[1]);
     93a:	69 81       	ldd	r22, Y+1	; 0x01
     93c:	80 e1       	ldi	r24, 0x10	; 16
     93e:	90 e0       	ldi	r25, 0x00	; 0
     940:	0e 94 89 02 	call	0x512	; 0x512 <SPI_Write8>
	SPI_Write8(SIPR + 2,ip_addr[2]);
     944:	6a 81       	ldd	r22, Y+2	; 0x02
     946:	81 e1       	ldi	r24, 0x11	; 17
     948:	90 e0       	ldi	r25, 0x00	; 0
     94a:	0e 94 89 02 	call	0x512	; 0x512 <SPI_Write8>
	SPI_Write8(SIPR + 3,ip_addr[3]);
     94e:	6b 81       	ldd	r22, Y+3	; 0x03
     950:	82 e1       	ldi	r24, 0x12	; 18
     952:	90 e0       	ldi	r25, 0x00	; 0
     954:	0e 94 89 02 	call	0x512	; 0x512 <SPI_Write8>
 
	// Recieve and transmission
	SPI_Write8(RMSR,0x55);		// Tildeler 0b01010101 hvilket er 2Kb til hver socket's RX buffer. (Maximum 8 KB i alt for alle 4!)
     958:	65 e5       	ldi	r22, 0x55	; 85
     95a:	8a e1       	ldi	r24, 0x1A	; 26
     95c:	90 e0       	ldi	r25, 0x00	; 0
     95e:	0e 94 89 02 	call	0x512	; 0x512 <SPI_Write8>
	SPI_Write8(TMSR,0x55);		// Samme for TX
     962:	65 e5       	ldi	r22, 0x55	; 85
     964:	8b e1       	ldi	r24, 0x1B	; 27
     966:	90 e0       	ldi	r25, 0x00	; 0
     968:	0e 94 89 02 	call	0x512	; 0x512 <SPI_Write8>
  
	// Basic Init er overstået, nu kan vi pinge...
}
     96c:	df 91       	pop	r29
     96e:	cf 91       	pop	r28
     970:	08 95       	ret

00000972 <__floatunsisf>:
     972:	e8 94       	clt
     974:	09 c0       	rjmp	.+18     	; 0x988 <__floatsisf+0x12>

00000976 <__floatsisf>:
     976:	97 fb       	bst	r25, 7
     978:	3e f4       	brtc	.+14     	; 0x988 <__floatsisf+0x12>
     97a:	90 95       	com	r25
     97c:	80 95       	com	r24
     97e:	70 95       	com	r23
     980:	61 95       	neg	r22
     982:	7f 4f       	sbci	r23, 0xFF	; 255
     984:	8f 4f       	sbci	r24, 0xFF	; 255
     986:	9f 4f       	sbci	r25, 0xFF	; 255
     988:	99 23       	and	r25, r25
     98a:	a9 f0       	breq	.+42     	; 0x9b6 <__floatsisf+0x40>
     98c:	f9 2f       	mov	r31, r25
     98e:	96 e9       	ldi	r25, 0x96	; 150
     990:	bb 27       	eor	r27, r27
     992:	93 95       	inc	r25
     994:	f6 95       	lsr	r31
     996:	87 95       	ror	r24
     998:	77 95       	ror	r23
     99a:	67 95       	ror	r22
     99c:	b7 95       	ror	r27
     99e:	f1 11       	cpse	r31, r1
     9a0:	f8 cf       	rjmp	.-16     	; 0x992 <__floatsisf+0x1c>
     9a2:	fa f4       	brpl	.+62     	; 0x9e2 <__floatsisf+0x6c>
     9a4:	bb 0f       	add	r27, r27
     9a6:	11 f4       	brne	.+4      	; 0x9ac <__floatsisf+0x36>
     9a8:	60 ff       	sbrs	r22, 0
     9aa:	1b c0       	rjmp	.+54     	; 0x9e2 <__floatsisf+0x6c>
     9ac:	6f 5f       	subi	r22, 0xFF	; 255
     9ae:	7f 4f       	sbci	r23, 0xFF	; 255
     9b0:	8f 4f       	sbci	r24, 0xFF	; 255
     9b2:	9f 4f       	sbci	r25, 0xFF	; 255
     9b4:	16 c0       	rjmp	.+44     	; 0x9e2 <__floatsisf+0x6c>
     9b6:	88 23       	and	r24, r24
     9b8:	11 f0       	breq	.+4      	; 0x9be <__floatsisf+0x48>
     9ba:	96 e9       	ldi	r25, 0x96	; 150
     9bc:	11 c0       	rjmp	.+34     	; 0x9e0 <__floatsisf+0x6a>
     9be:	77 23       	and	r23, r23
     9c0:	21 f0       	breq	.+8      	; 0x9ca <__floatsisf+0x54>
     9c2:	9e e8       	ldi	r25, 0x8E	; 142
     9c4:	87 2f       	mov	r24, r23
     9c6:	76 2f       	mov	r23, r22
     9c8:	05 c0       	rjmp	.+10     	; 0x9d4 <__floatsisf+0x5e>
     9ca:	66 23       	and	r22, r22
     9cc:	71 f0       	breq	.+28     	; 0x9ea <__floatsisf+0x74>
     9ce:	96 e8       	ldi	r25, 0x86	; 134
     9d0:	86 2f       	mov	r24, r22
     9d2:	70 e0       	ldi	r23, 0x00	; 0
     9d4:	60 e0       	ldi	r22, 0x00	; 0
     9d6:	2a f0       	brmi	.+10     	; 0x9e2 <__floatsisf+0x6c>
     9d8:	9a 95       	dec	r25
     9da:	66 0f       	add	r22, r22
     9dc:	77 1f       	adc	r23, r23
     9de:	88 1f       	adc	r24, r24
     9e0:	da f7       	brpl	.-10     	; 0x9d8 <__floatsisf+0x62>
     9e2:	88 0f       	add	r24, r24
     9e4:	96 95       	lsr	r25
     9e6:	87 95       	ror	r24
     9e8:	97 f9       	bld	r25, 7
     9ea:	08 95       	ret

000009ec <__mulsf3>:
     9ec:	0e 94 09 05 	call	0xa12	; 0xa12 <__mulsf3x>
     9f0:	0c 94 7a 05 	jmp	0xaf4	; 0xaf4 <__fp_round>
     9f4:	0e 94 6c 05 	call	0xad8	; 0xad8 <__fp_pscA>
     9f8:	38 f0       	brcs	.+14     	; 0xa08 <__mulsf3+0x1c>
     9fa:	0e 94 73 05 	call	0xae6	; 0xae6 <__fp_pscB>
     9fe:	20 f0       	brcs	.+8      	; 0xa08 <__mulsf3+0x1c>
     a00:	95 23       	and	r25, r21
     a02:	11 f0       	breq	.+4      	; 0xa08 <__mulsf3+0x1c>
     a04:	0c 94 63 05 	jmp	0xac6	; 0xac6 <__fp_inf>
     a08:	0c 94 69 05 	jmp	0xad2	; 0xad2 <__fp_nan>
     a0c:	11 24       	eor	r1, r1
     a0e:	0c 94 ae 05 	jmp	0xb5c	; 0xb5c <__fp_szero>

00000a12 <__mulsf3x>:
     a12:	0e 94 8b 05 	call	0xb16	; 0xb16 <__fp_split3>
     a16:	70 f3       	brcs	.-36     	; 0x9f4 <__mulsf3+0x8>

00000a18 <__mulsf3_pse>:
     a18:	95 9f       	mul	r25, r21
     a1a:	c1 f3       	breq	.-16     	; 0xa0c <__mulsf3+0x20>
     a1c:	95 0f       	add	r25, r21
     a1e:	50 e0       	ldi	r21, 0x00	; 0
     a20:	55 1f       	adc	r21, r21
     a22:	62 9f       	mul	r22, r18
     a24:	f0 01       	movw	r30, r0
     a26:	72 9f       	mul	r23, r18
     a28:	bb 27       	eor	r27, r27
     a2a:	f0 0d       	add	r31, r0
     a2c:	b1 1d       	adc	r27, r1
     a2e:	63 9f       	mul	r22, r19
     a30:	aa 27       	eor	r26, r26
     a32:	f0 0d       	add	r31, r0
     a34:	b1 1d       	adc	r27, r1
     a36:	aa 1f       	adc	r26, r26
     a38:	64 9f       	mul	r22, r20
     a3a:	66 27       	eor	r22, r22
     a3c:	b0 0d       	add	r27, r0
     a3e:	a1 1d       	adc	r26, r1
     a40:	66 1f       	adc	r22, r22
     a42:	82 9f       	mul	r24, r18
     a44:	22 27       	eor	r18, r18
     a46:	b0 0d       	add	r27, r0
     a48:	a1 1d       	adc	r26, r1
     a4a:	62 1f       	adc	r22, r18
     a4c:	73 9f       	mul	r23, r19
     a4e:	b0 0d       	add	r27, r0
     a50:	a1 1d       	adc	r26, r1
     a52:	62 1f       	adc	r22, r18
     a54:	83 9f       	mul	r24, r19
     a56:	a0 0d       	add	r26, r0
     a58:	61 1d       	adc	r22, r1
     a5a:	22 1f       	adc	r18, r18
     a5c:	74 9f       	mul	r23, r20
     a5e:	33 27       	eor	r19, r19
     a60:	a0 0d       	add	r26, r0
     a62:	61 1d       	adc	r22, r1
     a64:	23 1f       	adc	r18, r19
     a66:	84 9f       	mul	r24, r20
     a68:	60 0d       	add	r22, r0
     a6a:	21 1d       	adc	r18, r1
     a6c:	82 2f       	mov	r24, r18
     a6e:	76 2f       	mov	r23, r22
     a70:	6a 2f       	mov	r22, r26
     a72:	11 24       	eor	r1, r1
     a74:	9f 57       	subi	r25, 0x7F	; 127
     a76:	50 40       	sbci	r21, 0x00	; 0
     a78:	9a f0       	brmi	.+38     	; 0xaa0 <__mulsf3_pse+0x88>
     a7a:	f1 f0       	breq	.+60     	; 0xab8 <__mulsf3_pse+0xa0>
     a7c:	88 23       	and	r24, r24
     a7e:	4a f0       	brmi	.+18     	; 0xa92 <__mulsf3_pse+0x7a>
     a80:	ee 0f       	add	r30, r30
     a82:	ff 1f       	adc	r31, r31
     a84:	bb 1f       	adc	r27, r27
     a86:	66 1f       	adc	r22, r22
     a88:	77 1f       	adc	r23, r23
     a8a:	88 1f       	adc	r24, r24
     a8c:	91 50       	subi	r25, 0x01	; 1
     a8e:	50 40       	sbci	r21, 0x00	; 0
     a90:	a9 f7       	brne	.-22     	; 0xa7c <__mulsf3_pse+0x64>
     a92:	9e 3f       	cpi	r25, 0xFE	; 254
     a94:	51 05       	cpc	r21, r1
     a96:	80 f0       	brcs	.+32     	; 0xab8 <__mulsf3_pse+0xa0>
     a98:	0c 94 63 05 	jmp	0xac6	; 0xac6 <__fp_inf>
     a9c:	0c 94 ae 05 	jmp	0xb5c	; 0xb5c <__fp_szero>
     aa0:	5f 3f       	cpi	r21, 0xFF	; 255
     aa2:	e4 f3       	brlt	.-8      	; 0xa9c <__mulsf3_pse+0x84>
     aa4:	98 3e       	cpi	r25, 0xE8	; 232
     aa6:	d4 f3       	brlt	.-12     	; 0xa9c <__mulsf3_pse+0x84>
     aa8:	86 95       	lsr	r24
     aaa:	77 95       	ror	r23
     aac:	67 95       	ror	r22
     aae:	b7 95       	ror	r27
     ab0:	f7 95       	ror	r31
     ab2:	e7 95       	ror	r30
     ab4:	9f 5f       	subi	r25, 0xFF	; 255
     ab6:	c1 f7       	brne	.-16     	; 0xaa8 <__mulsf3_pse+0x90>
     ab8:	fe 2b       	or	r31, r30
     aba:	88 0f       	add	r24, r24
     abc:	91 1d       	adc	r25, r1
     abe:	96 95       	lsr	r25
     ac0:	87 95       	ror	r24
     ac2:	97 f9       	bld	r25, 7
     ac4:	08 95       	ret

00000ac6 <__fp_inf>:
     ac6:	97 f9       	bld	r25, 7
     ac8:	9f 67       	ori	r25, 0x7F	; 127
     aca:	80 e8       	ldi	r24, 0x80	; 128
     acc:	70 e0       	ldi	r23, 0x00	; 0
     ace:	60 e0       	ldi	r22, 0x00	; 0
     ad0:	08 95       	ret

00000ad2 <__fp_nan>:
     ad2:	9f ef       	ldi	r25, 0xFF	; 255
     ad4:	80 ec       	ldi	r24, 0xC0	; 192
     ad6:	08 95       	ret

00000ad8 <__fp_pscA>:
     ad8:	00 24       	eor	r0, r0
     ada:	0a 94       	dec	r0
     adc:	16 16       	cp	r1, r22
     ade:	17 06       	cpc	r1, r23
     ae0:	18 06       	cpc	r1, r24
     ae2:	09 06       	cpc	r0, r25
     ae4:	08 95       	ret

00000ae6 <__fp_pscB>:
     ae6:	00 24       	eor	r0, r0
     ae8:	0a 94       	dec	r0
     aea:	12 16       	cp	r1, r18
     aec:	13 06       	cpc	r1, r19
     aee:	14 06       	cpc	r1, r20
     af0:	05 06       	cpc	r0, r21
     af2:	08 95       	ret

00000af4 <__fp_round>:
     af4:	09 2e       	mov	r0, r25
     af6:	03 94       	inc	r0
     af8:	00 0c       	add	r0, r0
     afa:	11 f4       	brne	.+4      	; 0xb00 <__fp_round+0xc>
     afc:	88 23       	and	r24, r24
     afe:	52 f0       	brmi	.+20     	; 0xb14 <__fp_round+0x20>
     b00:	bb 0f       	add	r27, r27
     b02:	40 f4       	brcc	.+16     	; 0xb14 <__fp_round+0x20>
     b04:	bf 2b       	or	r27, r31
     b06:	11 f4       	brne	.+4      	; 0xb0c <__fp_round+0x18>
     b08:	60 ff       	sbrs	r22, 0
     b0a:	04 c0       	rjmp	.+8      	; 0xb14 <__fp_round+0x20>
     b0c:	6f 5f       	subi	r22, 0xFF	; 255
     b0e:	7f 4f       	sbci	r23, 0xFF	; 255
     b10:	8f 4f       	sbci	r24, 0xFF	; 255
     b12:	9f 4f       	sbci	r25, 0xFF	; 255
     b14:	08 95       	ret

00000b16 <__fp_split3>:
     b16:	57 fd       	sbrc	r21, 7
     b18:	90 58       	subi	r25, 0x80	; 128
     b1a:	44 0f       	add	r20, r20
     b1c:	55 1f       	adc	r21, r21
     b1e:	59 f0       	breq	.+22     	; 0xb36 <__fp_splitA+0x10>
     b20:	5f 3f       	cpi	r21, 0xFF	; 255
     b22:	71 f0       	breq	.+28     	; 0xb40 <__fp_splitA+0x1a>
     b24:	47 95       	ror	r20

00000b26 <__fp_splitA>:
     b26:	88 0f       	add	r24, r24
     b28:	97 fb       	bst	r25, 7
     b2a:	99 1f       	adc	r25, r25
     b2c:	61 f0       	breq	.+24     	; 0xb46 <__fp_splitA+0x20>
     b2e:	9f 3f       	cpi	r25, 0xFF	; 255
     b30:	79 f0       	breq	.+30     	; 0xb50 <__fp_splitA+0x2a>
     b32:	87 95       	ror	r24
     b34:	08 95       	ret
     b36:	12 16       	cp	r1, r18
     b38:	13 06       	cpc	r1, r19
     b3a:	14 06       	cpc	r1, r20
     b3c:	55 1f       	adc	r21, r21
     b3e:	f2 cf       	rjmp	.-28     	; 0xb24 <__fp_split3+0xe>
     b40:	46 95       	lsr	r20
     b42:	f1 df       	rcall	.-30     	; 0xb26 <__fp_splitA>
     b44:	08 c0       	rjmp	.+16     	; 0xb56 <__fp_splitA+0x30>
     b46:	16 16       	cp	r1, r22
     b48:	17 06       	cpc	r1, r23
     b4a:	18 06       	cpc	r1, r24
     b4c:	99 1f       	adc	r25, r25
     b4e:	f1 cf       	rjmp	.-30     	; 0xb32 <__fp_splitA+0xc>
     b50:	86 95       	lsr	r24
     b52:	71 05       	cpc	r23, r1
     b54:	61 05       	cpc	r22, r1
     b56:	08 94       	sec
     b58:	08 95       	ret

00000b5a <__fp_zero>:
     b5a:	e8 94       	clt

00000b5c <__fp_szero>:
     b5c:	bb 27       	eor	r27, r27
     b5e:	66 27       	eor	r22, r22
     b60:	77 27       	eor	r23, r23
     b62:	cb 01       	movw	r24, r22
     b64:	97 f9       	bld	r25, 7
     b66:	08 95       	ret

00000b68 <vfprintf>:
     b68:	a3 e1       	ldi	r26, 0x13	; 19
     b6a:	b0 e0       	ldi	r27, 0x00	; 0
     b6c:	ea eb       	ldi	r30, 0xBA	; 186
     b6e:	f5 e0       	ldi	r31, 0x05	; 5
     b70:	0c 94 30 09 	jmp	0x1260	; 0x1260 <__prologue_saves__>
     b74:	6c 01       	movw	r12, r24
     b76:	4b 01       	movw	r8, r22
     b78:	2a 01       	movw	r4, r20
     b7a:	fc 01       	movw	r30, r24
     b7c:	17 82       	std	Z+7, r1	; 0x07
     b7e:	16 82       	std	Z+6, r1	; 0x06
     b80:	83 81       	ldd	r24, Z+3	; 0x03
     b82:	81 ff       	sbrs	r24, 1
     b84:	43 c3       	rjmp	.+1670   	; 0x120c <vfprintf+0x6a4>
     b86:	ae 01       	movw	r20, r28
     b88:	4f 5f       	subi	r20, 0xFF	; 255
     b8a:	5f 4f       	sbci	r21, 0xFF	; 255
     b8c:	3a 01       	movw	r6, r20
     b8e:	f6 01       	movw	r30, r12
     b90:	93 81       	ldd	r25, Z+3	; 0x03
     b92:	f4 01       	movw	r30, r8
     b94:	93 fd       	sbrc	r25, 3
     b96:	85 91       	lpm	r24, Z+
     b98:	93 ff       	sbrs	r25, 3
     b9a:	81 91       	ld	r24, Z+
     b9c:	4f 01       	movw	r8, r30
     b9e:	88 23       	and	r24, r24
     ba0:	09 f4       	brne	.+2      	; 0xba4 <vfprintf+0x3c>
     ba2:	30 c3       	rjmp	.+1632   	; 0x1204 <vfprintf+0x69c>
     ba4:	85 32       	cpi	r24, 0x25	; 37
     ba6:	39 f4       	brne	.+14     	; 0xbb6 <vfprintf+0x4e>
     ba8:	93 fd       	sbrc	r25, 3
     baa:	85 91       	lpm	r24, Z+
     bac:	93 ff       	sbrs	r25, 3
     bae:	81 91       	ld	r24, Z+
     bb0:	4f 01       	movw	r8, r30
     bb2:	85 32       	cpi	r24, 0x25	; 37
     bb4:	39 f4       	brne	.+14     	; 0xbc4 <vfprintf+0x5c>
     bb6:	b6 01       	movw	r22, r12
     bb8:	90 e0       	ldi	r25, 0x00	; 0
     bba:	0e 94 55 0a 	call	0x14aa	; 0x14aa <fputc>
     bbe:	52 01       	movw	r10, r4
     bc0:	25 01       	movw	r4, r10
     bc2:	e5 cf       	rjmp	.-54     	; 0xb8e <vfprintf+0x26>
     bc4:	10 e0       	ldi	r17, 0x00	; 0
     bc6:	f1 2c       	mov	r15, r1
     bc8:	20 e0       	ldi	r18, 0x00	; 0
     bca:	20 32       	cpi	r18, 0x20	; 32
     bcc:	a0 f4       	brcc	.+40     	; 0xbf6 <vfprintf+0x8e>
     bce:	8b 32       	cpi	r24, 0x2B	; 43
     bd0:	69 f0       	breq	.+26     	; 0xbec <vfprintf+0x84>
     bd2:	30 f4       	brcc	.+12     	; 0xbe0 <vfprintf+0x78>
     bd4:	80 32       	cpi	r24, 0x20	; 32
     bd6:	59 f0       	breq	.+22     	; 0xbee <vfprintf+0x86>
     bd8:	83 32       	cpi	r24, 0x23	; 35
     bda:	69 f4       	brne	.+26     	; 0xbf6 <vfprintf+0x8e>
     bdc:	20 61       	ori	r18, 0x10	; 16
     bde:	2c c0       	rjmp	.+88     	; 0xc38 <vfprintf+0xd0>
     be0:	8d 32       	cpi	r24, 0x2D	; 45
     be2:	39 f0       	breq	.+14     	; 0xbf2 <vfprintf+0x8a>
     be4:	80 33       	cpi	r24, 0x30	; 48
     be6:	39 f4       	brne	.+14     	; 0xbf6 <vfprintf+0x8e>
     be8:	21 60       	ori	r18, 0x01	; 1
     bea:	26 c0       	rjmp	.+76     	; 0xc38 <vfprintf+0xd0>
     bec:	22 60       	ori	r18, 0x02	; 2
     bee:	24 60       	ori	r18, 0x04	; 4
     bf0:	23 c0       	rjmp	.+70     	; 0xc38 <vfprintf+0xd0>
     bf2:	28 60       	ori	r18, 0x08	; 8
     bf4:	21 c0       	rjmp	.+66     	; 0xc38 <vfprintf+0xd0>
     bf6:	27 fd       	sbrc	r18, 7
     bf8:	27 c0       	rjmp	.+78     	; 0xc48 <vfprintf+0xe0>
     bfa:	30 ed       	ldi	r19, 0xD0	; 208
     bfc:	38 0f       	add	r19, r24
     bfe:	3a 30       	cpi	r19, 0x0A	; 10
     c00:	78 f4       	brcc	.+30     	; 0xc20 <vfprintf+0xb8>
     c02:	26 ff       	sbrs	r18, 6
     c04:	06 c0       	rjmp	.+12     	; 0xc12 <vfprintf+0xaa>
     c06:	fa e0       	ldi	r31, 0x0A	; 10
     c08:	1f 9f       	mul	r17, r31
     c0a:	30 0d       	add	r19, r0
     c0c:	11 24       	eor	r1, r1
     c0e:	13 2f       	mov	r17, r19
     c10:	13 c0       	rjmp	.+38     	; 0xc38 <vfprintf+0xd0>
     c12:	4a e0       	ldi	r20, 0x0A	; 10
     c14:	f4 9e       	mul	r15, r20
     c16:	30 0d       	add	r19, r0
     c18:	11 24       	eor	r1, r1
     c1a:	f3 2e       	mov	r15, r19
     c1c:	20 62       	ori	r18, 0x20	; 32
     c1e:	0c c0       	rjmp	.+24     	; 0xc38 <vfprintf+0xd0>
     c20:	8e 32       	cpi	r24, 0x2E	; 46
     c22:	21 f4       	brne	.+8      	; 0xc2c <vfprintf+0xc4>
     c24:	26 fd       	sbrc	r18, 6
     c26:	ee c2       	rjmp	.+1500   	; 0x1204 <vfprintf+0x69c>
     c28:	20 64       	ori	r18, 0x40	; 64
     c2a:	06 c0       	rjmp	.+12     	; 0xc38 <vfprintf+0xd0>
     c2c:	8c 36       	cpi	r24, 0x6C	; 108
     c2e:	11 f4       	brne	.+4      	; 0xc34 <vfprintf+0xcc>
     c30:	20 68       	ori	r18, 0x80	; 128
     c32:	02 c0       	rjmp	.+4      	; 0xc38 <vfprintf+0xd0>
     c34:	88 36       	cpi	r24, 0x68	; 104
     c36:	41 f4       	brne	.+16     	; 0xc48 <vfprintf+0xe0>
     c38:	f4 01       	movw	r30, r8
     c3a:	93 fd       	sbrc	r25, 3
     c3c:	85 91       	lpm	r24, Z+
     c3e:	93 ff       	sbrs	r25, 3
     c40:	81 91       	ld	r24, Z+
     c42:	4f 01       	movw	r8, r30
     c44:	81 11       	cpse	r24, r1
     c46:	c1 cf       	rjmp	.-126    	; 0xbca <vfprintf+0x62>
     c48:	9b eb       	ldi	r25, 0xBB	; 187
     c4a:	98 0f       	add	r25, r24
     c4c:	93 30       	cpi	r25, 0x03	; 3
     c4e:	18 f4       	brcc	.+6      	; 0xc56 <vfprintf+0xee>
     c50:	20 61       	ori	r18, 0x10	; 16
     c52:	80 5e       	subi	r24, 0xE0	; 224
     c54:	06 c0       	rjmp	.+12     	; 0xc62 <vfprintf+0xfa>
     c56:	9b e9       	ldi	r25, 0x9B	; 155
     c58:	98 0f       	add	r25, r24
     c5a:	93 30       	cpi	r25, 0x03	; 3
     c5c:	08 f0       	brcs	.+2      	; 0xc60 <vfprintf+0xf8>
     c5e:	71 c1       	rjmp	.+738    	; 0xf42 <vfprintf+0x3da>
     c60:	2f 7e       	andi	r18, 0xEF	; 239
     c62:	26 ff       	sbrs	r18, 6
     c64:	16 e0       	ldi	r17, 0x06	; 6
     c66:	2f 73       	andi	r18, 0x3F	; 63
     c68:	32 2e       	mov	r3, r18
     c6a:	85 36       	cpi	r24, 0x65	; 101
     c6c:	19 f4       	brne	.+6      	; 0xc74 <vfprintf+0x10c>
     c6e:	20 64       	ori	r18, 0x40	; 64
     c70:	32 2e       	mov	r3, r18
     c72:	08 c0       	rjmp	.+16     	; 0xc84 <vfprintf+0x11c>
     c74:	86 36       	cpi	r24, 0x66	; 102
     c76:	21 f4       	brne	.+8      	; 0xc80 <vfprintf+0x118>
     c78:	f2 2f       	mov	r31, r18
     c7a:	f0 68       	ori	r31, 0x80	; 128
     c7c:	3f 2e       	mov	r3, r31
     c7e:	02 c0       	rjmp	.+4      	; 0xc84 <vfprintf+0x11c>
     c80:	11 11       	cpse	r17, r1
     c82:	11 50       	subi	r17, 0x01	; 1
     c84:	37 fe       	sbrs	r3, 7
     c86:	07 c0       	rjmp	.+14     	; 0xc96 <vfprintf+0x12e>
     c88:	1c 33       	cpi	r17, 0x3C	; 60
     c8a:	50 f4       	brcc	.+20     	; 0xca0 <vfprintf+0x138>
     c8c:	ee 24       	eor	r14, r14
     c8e:	e3 94       	inc	r14
     c90:	e1 0e       	add	r14, r17
     c92:	27 e0       	ldi	r18, 0x07	; 7
     c94:	0b c0       	rjmp	.+22     	; 0xcac <vfprintf+0x144>
     c96:	18 30       	cpi	r17, 0x08	; 8
     c98:	38 f0       	brcs	.+14     	; 0xca8 <vfprintf+0x140>
     c9a:	27 e0       	ldi	r18, 0x07	; 7
     c9c:	17 e0       	ldi	r17, 0x07	; 7
     c9e:	05 c0       	rjmp	.+10     	; 0xcaa <vfprintf+0x142>
     ca0:	27 e0       	ldi	r18, 0x07	; 7
     ca2:	4c e3       	ldi	r20, 0x3C	; 60
     ca4:	e4 2e       	mov	r14, r20
     ca6:	02 c0       	rjmp	.+4      	; 0xcac <vfprintf+0x144>
     ca8:	21 2f       	mov	r18, r17
     caa:	e1 2c       	mov	r14, r1
     cac:	52 01       	movw	r10, r4
     cae:	44 e0       	ldi	r20, 0x04	; 4
     cb0:	a4 0e       	add	r10, r20
     cb2:	b1 1c       	adc	r11, r1
     cb4:	f2 01       	movw	r30, r4
     cb6:	60 81       	ld	r22, Z
     cb8:	71 81       	ldd	r23, Z+1	; 0x01
     cba:	82 81       	ldd	r24, Z+2	; 0x02
     cbc:	93 81       	ldd	r25, Z+3	; 0x03
     cbe:	0e 2d       	mov	r16, r14
     cc0:	a3 01       	movw	r20, r6
     cc2:	0e 94 67 09 	call	0x12ce	; 0x12ce <__ftoa_engine>
     cc6:	2c 01       	movw	r4, r24
     cc8:	09 81       	ldd	r16, Y+1	; 0x01
     cca:	00 ff       	sbrs	r16, 0
     ccc:	02 c0       	rjmp	.+4      	; 0xcd2 <vfprintf+0x16a>
     cce:	03 ff       	sbrs	r16, 3
     cd0:	07 c0       	rjmp	.+14     	; 0xce0 <vfprintf+0x178>
     cd2:	31 fc       	sbrc	r3, 1
     cd4:	08 c0       	rjmp	.+16     	; 0xce6 <vfprintf+0x17e>
     cd6:	32 fe       	sbrs	r3, 2
     cd8:	09 c0       	rjmp	.+18     	; 0xcec <vfprintf+0x184>
     cda:	30 e2       	ldi	r19, 0x20	; 32
     cdc:	23 2e       	mov	r2, r19
     cde:	07 c0       	rjmp	.+14     	; 0xcee <vfprintf+0x186>
     ce0:	2d e2       	ldi	r18, 0x2D	; 45
     ce2:	22 2e       	mov	r2, r18
     ce4:	04 c0       	rjmp	.+8      	; 0xcee <vfprintf+0x186>
     ce6:	9b e2       	ldi	r25, 0x2B	; 43
     ce8:	29 2e       	mov	r2, r25
     cea:	01 c0       	rjmp	.+2      	; 0xcee <vfprintf+0x186>
     cec:	21 2c       	mov	r2, r1
     cee:	80 2f       	mov	r24, r16
     cf0:	8c 70       	andi	r24, 0x0C	; 12
     cf2:	19 f0       	breq	.+6      	; 0xcfa <vfprintf+0x192>
     cf4:	21 10       	cpse	r2, r1
     cf6:	68 c2       	rjmp	.+1232   	; 0x11c8 <vfprintf+0x660>
     cf8:	a8 c2       	rjmp	.+1360   	; 0x124a <vfprintf+0x6e2>
     cfa:	37 fe       	sbrs	r3, 7
     cfc:	0f c0       	rjmp	.+30     	; 0xd1c <vfprintf+0x1b4>
     cfe:	e4 0c       	add	r14, r4
     d00:	04 ff       	sbrs	r16, 4
     d02:	04 c0       	rjmp	.+8      	; 0xd0c <vfprintf+0x1a4>
     d04:	8a 81       	ldd	r24, Y+2	; 0x02
     d06:	81 33       	cpi	r24, 0x31	; 49
     d08:	09 f4       	brne	.+2      	; 0xd0c <vfprintf+0x1a4>
     d0a:	ea 94       	dec	r14
     d0c:	1e 14       	cp	r1, r14
     d0e:	74 f5       	brge	.+92     	; 0xd6c <vfprintf+0x204>
     d10:	f8 e0       	ldi	r31, 0x08	; 8
     d12:	fe 15       	cp	r31, r14
     d14:	78 f5       	brcc	.+94     	; 0xd74 <vfprintf+0x20c>
     d16:	88 e0       	ldi	r24, 0x08	; 8
     d18:	e8 2e       	mov	r14, r24
     d1a:	2c c0       	rjmp	.+88     	; 0xd74 <vfprintf+0x20c>
     d1c:	36 fc       	sbrc	r3, 6
     d1e:	2a c0       	rjmp	.+84     	; 0xd74 <vfprintf+0x20c>
     d20:	81 2f       	mov	r24, r17
     d22:	90 e0       	ldi	r25, 0x00	; 0
     d24:	84 15       	cp	r24, r4
     d26:	95 05       	cpc	r25, r5
     d28:	9c f0       	brlt	.+38     	; 0xd50 <vfprintf+0x1e8>
     d2a:	2c ef       	ldi	r18, 0xFC	; 252
     d2c:	42 16       	cp	r4, r18
     d2e:	2f ef       	ldi	r18, 0xFF	; 255
     d30:	52 06       	cpc	r5, r18
     d32:	74 f0       	brlt	.+28     	; 0xd50 <vfprintf+0x1e8>
     d34:	43 2d       	mov	r20, r3
     d36:	40 68       	ori	r20, 0x80	; 128
     d38:	34 2e       	mov	r3, r20
     d3a:	0a c0       	rjmp	.+20     	; 0xd50 <vfprintf+0x1e8>
     d3c:	e2 e0       	ldi	r30, 0x02	; 2
     d3e:	f0 e0       	ldi	r31, 0x00	; 0
     d40:	ec 0f       	add	r30, r28
     d42:	fd 1f       	adc	r31, r29
     d44:	e1 0f       	add	r30, r17
     d46:	f1 1d       	adc	r31, r1
     d48:	80 81       	ld	r24, Z
     d4a:	80 33       	cpi	r24, 0x30	; 48
     d4c:	19 f4       	brne	.+6      	; 0xd54 <vfprintf+0x1ec>
     d4e:	11 50       	subi	r17, 0x01	; 1
     d50:	11 11       	cpse	r17, r1
     d52:	f4 cf       	rjmp	.-24     	; 0xd3c <vfprintf+0x1d4>
     d54:	37 fe       	sbrs	r3, 7
     d56:	0e c0       	rjmp	.+28     	; 0xd74 <vfprintf+0x20c>
     d58:	ee 24       	eor	r14, r14
     d5a:	e3 94       	inc	r14
     d5c:	e1 0e       	add	r14, r17
     d5e:	81 2f       	mov	r24, r17
     d60:	90 e0       	ldi	r25, 0x00	; 0
     d62:	48 16       	cp	r4, r24
     d64:	59 06       	cpc	r5, r25
     d66:	2c f4       	brge	.+10     	; 0xd72 <vfprintf+0x20a>
     d68:	14 19       	sub	r17, r4
     d6a:	04 c0       	rjmp	.+8      	; 0xd74 <vfprintf+0x20c>
     d6c:	ee 24       	eor	r14, r14
     d6e:	e3 94       	inc	r14
     d70:	01 c0       	rjmp	.+2      	; 0xd74 <vfprintf+0x20c>
     d72:	10 e0       	ldi	r17, 0x00	; 0
     d74:	37 fe       	sbrs	r3, 7
     d76:	06 c0       	rjmp	.+12     	; 0xd84 <vfprintf+0x21c>
     d78:	14 14       	cp	r1, r4
     d7a:	15 04       	cpc	r1, r5
     d7c:	34 f4       	brge	.+12     	; 0xd8a <vfprintf+0x222>
     d7e:	c2 01       	movw	r24, r4
     d80:	01 96       	adiw	r24, 0x01	; 1
     d82:	05 c0       	rjmp	.+10     	; 0xd8e <vfprintf+0x226>
     d84:	85 e0       	ldi	r24, 0x05	; 5
     d86:	90 e0       	ldi	r25, 0x00	; 0
     d88:	02 c0       	rjmp	.+4      	; 0xd8e <vfprintf+0x226>
     d8a:	81 e0       	ldi	r24, 0x01	; 1
     d8c:	90 e0       	ldi	r25, 0x00	; 0
     d8e:	21 10       	cpse	r2, r1
     d90:	01 96       	adiw	r24, 0x01	; 1
     d92:	11 23       	and	r17, r17
     d94:	31 f0       	breq	.+12     	; 0xda2 <vfprintf+0x23a>
     d96:	21 2f       	mov	r18, r17
     d98:	30 e0       	ldi	r19, 0x00	; 0
     d9a:	2f 5f       	subi	r18, 0xFF	; 255
     d9c:	3f 4f       	sbci	r19, 0xFF	; 255
     d9e:	82 0f       	add	r24, r18
     da0:	93 1f       	adc	r25, r19
     da2:	2f 2d       	mov	r18, r15
     da4:	30 e0       	ldi	r19, 0x00	; 0
     da6:	82 17       	cp	r24, r18
     da8:	93 07       	cpc	r25, r19
     daa:	14 f4       	brge	.+4      	; 0xdb0 <vfprintf+0x248>
     dac:	f8 1a       	sub	r15, r24
     dae:	01 c0       	rjmp	.+2      	; 0xdb2 <vfprintf+0x24a>
     db0:	f1 2c       	mov	r15, r1
     db2:	83 2d       	mov	r24, r3
     db4:	89 70       	andi	r24, 0x09	; 9
     db6:	49 f4       	brne	.+18     	; 0xdca <vfprintf+0x262>
     db8:	ff 20       	and	r15, r15
     dba:	39 f0       	breq	.+14     	; 0xdca <vfprintf+0x262>
     dbc:	b6 01       	movw	r22, r12
     dbe:	80 e2       	ldi	r24, 0x20	; 32
     dc0:	90 e0       	ldi	r25, 0x00	; 0
     dc2:	0e 94 55 0a 	call	0x14aa	; 0x14aa <fputc>
     dc6:	fa 94       	dec	r15
     dc8:	f7 cf       	rjmp	.-18     	; 0xdb8 <vfprintf+0x250>
     dca:	22 20       	and	r2, r2
     dcc:	29 f0       	breq	.+10     	; 0xdd8 <vfprintf+0x270>
     dce:	b6 01       	movw	r22, r12
     dd0:	82 2d       	mov	r24, r2
     dd2:	90 e0       	ldi	r25, 0x00	; 0
     dd4:	0e 94 55 0a 	call	0x14aa	; 0x14aa <fputc>
     dd8:	33 fc       	sbrc	r3, 3
     dda:	09 c0       	rjmp	.+18     	; 0xdee <vfprintf+0x286>
     ddc:	ff 20       	and	r15, r15
     dde:	39 f0       	breq	.+14     	; 0xdee <vfprintf+0x286>
     de0:	b6 01       	movw	r22, r12
     de2:	80 e3       	ldi	r24, 0x30	; 48
     de4:	90 e0       	ldi	r25, 0x00	; 0
     de6:	0e 94 55 0a 	call	0x14aa	; 0x14aa <fputc>
     dea:	fa 94       	dec	r15
     dec:	f7 cf       	rjmp	.-18     	; 0xddc <vfprintf+0x274>
     dee:	37 fe       	sbrs	r3, 7
     df0:	5a c0       	rjmp	.+180    	; 0xea6 <vfprintf+0x33e>
     df2:	94 2d       	mov	r25, r4
     df4:	85 2d       	mov	r24, r5
     df6:	57 fe       	sbrs	r5, 7
     df8:	02 c0       	rjmp	.+4      	; 0xdfe <vfprintf+0x296>
     dfa:	90 e0       	ldi	r25, 0x00	; 0
     dfc:	80 e0       	ldi	r24, 0x00	; 0
     dfe:	29 2e       	mov	r2, r25
     e00:	38 2e       	mov	r3, r24
     e02:	20 e0       	ldi	r18, 0x00	; 0
     e04:	30 e0       	ldi	r19, 0x00	; 0
     e06:	a2 01       	movw	r20, r4
     e08:	4e 19       	sub	r20, r14
     e0a:	51 09       	sbc	r21, r1
     e0c:	5d 87       	std	Y+13, r21	; 0x0d
     e0e:	4c 87       	std	Y+12, r20	; 0x0c
     e10:	a2 01       	movw	r20, r4
     e12:	42 19       	sub	r20, r2
     e14:	53 09       	sbc	r21, r3
     e16:	5f 87       	std	Y+15, r21	; 0x0f
     e18:	4e 87       	std	Y+14, r20	; 0x0e
     e1a:	61 2f       	mov	r22, r17
     e1c:	70 e0       	ldi	r23, 0x00	; 0
     e1e:	44 27       	eor	r20, r20
     e20:	55 27       	eor	r21, r21
     e22:	46 1b       	sub	r20, r22
     e24:	57 0b       	sbc	r21, r23
     e26:	59 8b       	std	Y+17, r21	; 0x11
     e28:	48 8b       	std	Y+16, r20	; 0x10
     e2a:	5f ef       	ldi	r21, 0xFF	; 255
     e2c:	25 16       	cp	r2, r21
     e2e:	35 06       	cpc	r3, r21
     e30:	49 f4       	brne	.+18     	; 0xe44 <vfprintf+0x2dc>
     e32:	b6 01       	movw	r22, r12
     e34:	8e e2       	ldi	r24, 0x2E	; 46
     e36:	90 e0       	ldi	r25, 0x00	; 0
     e38:	2a 8b       	std	Y+18, r18	; 0x12
     e3a:	3b 8b       	std	Y+19, r19	; 0x13
     e3c:	0e 94 55 0a 	call	0x14aa	; 0x14aa <fputc>
     e40:	3b 89       	ldd	r19, Y+19	; 0x13
     e42:	2a 89       	ldd	r18, Y+18	; 0x12
     e44:	42 14       	cp	r4, r2
     e46:	53 04       	cpc	r5, r3
     e48:	6c f0       	brlt	.+26     	; 0xe64 <vfprintf+0x2fc>
     e4a:	4c 85       	ldd	r20, Y+12	; 0x0c
     e4c:	5d 85       	ldd	r21, Y+13	; 0x0d
     e4e:	42 15       	cp	r20, r2
     e50:	53 05       	cpc	r21, r3
     e52:	44 f4       	brge	.+16     	; 0xe64 <vfprintf+0x2fc>
     e54:	ee 85       	ldd	r30, Y+14	; 0x0e
     e56:	ff 85       	ldd	r31, Y+15	; 0x0f
     e58:	e2 0f       	add	r30, r18
     e5a:	f3 1f       	adc	r31, r19
     e5c:	e6 0d       	add	r30, r6
     e5e:	f7 1d       	adc	r31, r7
     e60:	81 81       	ldd	r24, Z+1	; 0x01
     e62:	01 c0       	rjmp	.+2      	; 0xe66 <vfprintf+0x2fe>
     e64:	80 e3       	ldi	r24, 0x30	; 48
     e66:	51 e0       	ldi	r21, 0x01	; 1
     e68:	25 1a       	sub	r2, r21
     e6a:	31 08       	sbc	r3, r1
     e6c:	2f 5f       	subi	r18, 0xFF	; 255
     e6e:	3f 4f       	sbci	r19, 0xFF	; 255
     e70:	48 89       	ldd	r20, Y+16	; 0x10
     e72:	59 89       	ldd	r21, Y+17	; 0x11
     e74:	24 16       	cp	r2, r20
     e76:	35 06       	cpc	r3, r21
     e78:	4c f0       	brlt	.+18     	; 0xe8c <vfprintf+0x324>
     e7a:	b6 01       	movw	r22, r12
     e7c:	90 e0       	ldi	r25, 0x00	; 0
     e7e:	2a 8b       	std	Y+18, r18	; 0x12
     e80:	3b 8b       	std	Y+19, r19	; 0x13
     e82:	0e 94 55 0a 	call	0x14aa	; 0x14aa <fputc>
     e86:	2a 89       	ldd	r18, Y+18	; 0x12
     e88:	3b 89       	ldd	r19, Y+19	; 0x13
     e8a:	cf cf       	rjmp	.-98     	; 0xe2a <vfprintf+0x2c2>
     e8c:	24 14       	cp	r2, r4
     e8e:	35 04       	cpc	r3, r5
     e90:	39 f4       	brne	.+14     	; 0xea0 <vfprintf+0x338>
     e92:	9a 81       	ldd	r25, Y+2	; 0x02
     e94:	96 33       	cpi	r25, 0x36	; 54
     e96:	18 f4       	brcc	.+6      	; 0xe9e <vfprintf+0x336>
     e98:	95 33       	cpi	r25, 0x35	; 53
     e9a:	11 f4       	brne	.+4      	; 0xea0 <vfprintf+0x338>
     e9c:	04 ff       	sbrs	r16, 4
     e9e:	81 e3       	ldi	r24, 0x31	; 49
     ea0:	b6 01       	movw	r22, r12
     ea2:	90 e0       	ldi	r25, 0x00	; 0
     ea4:	4b c0       	rjmp	.+150    	; 0xf3c <vfprintf+0x3d4>
     ea6:	8a 81       	ldd	r24, Y+2	; 0x02
     ea8:	81 33       	cpi	r24, 0x31	; 49
     eaa:	09 f0       	breq	.+2      	; 0xeae <vfprintf+0x346>
     eac:	0f 7e       	andi	r16, 0xEF	; 239
     eae:	b6 01       	movw	r22, r12
     eb0:	90 e0       	ldi	r25, 0x00	; 0
     eb2:	0e 94 55 0a 	call	0x14aa	; 0x14aa <fputc>
     eb6:	11 11       	cpse	r17, r1
     eb8:	05 c0       	rjmp	.+10     	; 0xec4 <vfprintf+0x35c>
     eba:	34 fc       	sbrc	r3, 4
     ebc:	18 c0       	rjmp	.+48     	; 0xeee <vfprintf+0x386>
     ebe:	85 e6       	ldi	r24, 0x65	; 101
     ec0:	90 e0       	ldi	r25, 0x00	; 0
     ec2:	17 c0       	rjmp	.+46     	; 0xef2 <vfprintf+0x38a>
     ec4:	b6 01       	movw	r22, r12
     ec6:	8e e2       	ldi	r24, 0x2E	; 46
     ec8:	90 e0       	ldi	r25, 0x00	; 0
     eca:	0e 94 55 0a 	call	0x14aa	; 0x14aa <fputc>
     ece:	82 e0       	ldi	r24, 0x02	; 2
     ed0:	ee 24       	eor	r14, r14
     ed2:	e3 94       	inc	r14
     ed4:	e8 0e       	add	r14, r24
     ed6:	f3 01       	movw	r30, r6
     ed8:	e8 0f       	add	r30, r24
     eda:	f1 1d       	adc	r31, r1
     edc:	80 81       	ld	r24, Z
     ede:	b6 01       	movw	r22, r12
     ee0:	90 e0       	ldi	r25, 0x00	; 0
     ee2:	0e 94 55 0a 	call	0x14aa	; 0x14aa <fputc>
     ee6:	11 50       	subi	r17, 0x01	; 1
     ee8:	8e 2d       	mov	r24, r14
     eea:	91 f7       	brne	.-28     	; 0xed0 <vfprintf+0x368>
     eec:	e6 cf       	rjmp	.-52     	; 0xeba <vfprintf+0x352>
     eee:	85 e4       	ldi	r24, 0x45	; 69
     ef0:	90 e0       	ldi	r25, 0x00	; 0
     ef2:	b6 01       	movw	r22, r12
     ef4:	0e 94 55 0a 	call	0x14aa	; 0x14aa <fputc>
     ef8:	57 fc       	sbrc	r5, 7
     efa:	05 c0       	rjmp	.+10     	; 0xf06 <vfprintf+0x39e>
     efc:	41 14       	cp	r4, r1
     efe:	51 04       	cpc	r5, r1
     f00:	39 f4       	brne	.+14     	; 0xf10 <vfprintf+0x3a8>
     f02:	04 ff       	sbrs	r16, 4
     f04:	05 c0       	rjmp	.+10     	; 0xf10 <vfprintf+0x3a8>
     f06:	51 94       	neg	r5
     f08:	41 94       	neg	r4
     f0a:	51 08       	sbc	r5, r1
     f0c:	8d e2       	ldi	r24, 0x2D	; 45
     f0e:	01 c0       	rjmp	.+2      	; 0xf12 <vfprintf+0x3aa>
     f10:	8b e2       	ldi	r24, 0x2B	; 43
     f12:	b6 01       	movw	r22, r12
     f14:	90 e0       	ldi	r25, 0x00	; 0
     f16:	0e 94 55 0a 	call	0x14aa	; 0x14aa <fputc>
     f1a:	80 e3       	ldi	r24, 0x30	; 48
     f1c:	9a e0       	ldi	r25, 0x0A	; 10
     f1e:	49 16       	cp	r4, r25
     f20:	51 04       	cpc	r5, r1
     f22:	2c f0       	brlt	.+10     	; 0xf2e <vfprintf+0x3c6>
     f24:	8f 5f       	subi	r24, 0xFF	; 255
     f26:	5a e0       	ldi	r21, 0x0A	; 10
     f28:	45 1a       	sub	r4, r21
     f2a:	51 08       	sbc	r5, r1
     f2c:	f7 cf       	rjmp	.-18     	; 0xf1c <vfprintf+0x3b4>
     f2e:	b6 01       	movw	r22, r12
     f30:	90 e0       	ldi	r25, 0x00	; 0
     f32:	0e 94 55 0a 	call	0x14aa	; 0x14aa <fputc>
     f36:	b6 01       	movw	r22, r12
     f38:	c2 01       	movw	r24, r4
     f3a:	c0 96       	adiw	r24, 0x30	; 48
     f3c:	0e 94 55 0a 	call	0x14aa	; 0x14aa <fputc>
     f40:	57 c1       	rjmp	.+686    	; 0x11f0 <vfprintf+0x688>
     f42:	83 36       	cpi	r24, 0x63	; 99
     f44:	31 f0       	breq	.+12     	; 0xf52 <vfprintf+0x3ea>
     f46:	83 37       	cpi	r24, 0x73	; 115
     f48:	79 f0       	breq	.+30     	; 0xf68 <vfprintf+0x400>
     f4a:	83 35       	cpi	r24, 0x53	; 83
     f4c:	09 f0       	breq	.+2      	; 0xf50 <vfprintf+0x3e8>
     f4e:	58 c0       	rjmp	.+176    	; 0x1000 <vfprintf+0x498>
     f50:	21 c0       	rjmp	.+66     	; 0xf94 <vfprintf+0x42c>
     f52:	52 01       	movw	r10, r4
     f54:	e2 e0       	ldi	r30, 0x02	; 2
     f56:	ae 0e       	add	r10, r30
     f58:	b1 1c       	adc	r11, r1
     f5a:	f2 01       	movw	r30, r4
     f5c:	80 81       	ld	r24, Z
     f5e:	89 83       	std	Y+1, r24	; 0x01
     f60:	01 e0       	ldi	r16, 0x01	; 1
     f62:	10 e0       	ldi	r17, 0x00	; 0
     f64:	23 01       	movw	r4, r6
     f66:	14 c0       	rjmp	.+40     	; 0xf90 <vfprintf+0x428>
     f68:	52 01       	movw	r10, r4
     f6a:	f2 e0       	ldi	r31, 0x02	; 2
     f6c:	af 0e       	add	r10, r31
     f6e:	b1 1c       	adc	r11, r1
     f70:	f2 01       	movw	r30, r4
     f72:	40 80       	ld	r4, Z
     f74:	51 80       	ldd	r5, Z+1	; 0x01
     f76:	26 ff       	sbrs	r18, 6
     f78:	03 c0       	rjmp	.+6      	; 0xf80 <vfprintf+0x418>
     f7a:	61 2f       	mov	r22, r17
     f7c:	70 e0       	ldi	r23, 0x00	; 0
     f7e:	02 c0       	rjmp	.+4      	; 0xf84 <vfprintf+0x41c>
     f80:	6f ef       	ldi	r22, 0xFF	; 255
     f82:	7f ef       	ldi	r23, 0xFF	; 255
     f84:	c2 01       	movw	r24, r4
     f86:	2a 8b       	std	Y+18, r18	; 0x12
     f88:	0e 94 4a 0a 	call	0x1494	; 0x1494 <strnlen>
     f8c:	8c 01       	movw	r16, r24
     f8e:	2a 89       	ldd	r18, Y+18	; 0x12
     f90:	2f 77       	andi	r18, 0x7F	; 127
     f92:	15 c0       	rjmp	.+42     	; 0xfbe <vfprintf+0x456>
     f94:	52 01       	movw	r10, r4
     f96:	f2 e0       	ldi	r31, 0x02	; 2
     f98:	af 0e       	add	r10, r31
     f9a:	b1 1c       	adc	r11, r1
     f9c:	f2 01       	movw	r30, r4
     f9e:	40 80       	ld	r4, Z
     fa0:	51 80       	ldd	r5, Z+1	; 0x01
     fa2:	26 ff       	sbrs	r18, 6
     fa4:	03 c0       	rjmp	.+6      	; 0xfac <vfprintf+0x444>
     fa6:	61 2f       	mov	r22, r17
     fa8:	70 e0       	ldi	r23, 0x00	; 0
     faa:	02 c0       	rjmp	.+4      	; 0xfb0 <vfprintf+0x448>
     fac:	6f ef       	ldi	r22, 0xFF	; 255
     fae:	7f ef       	ldi	r23, 0xFF	; 255
     fb0:	c2 01       	movw	r24, r4
     fb2:	2a 8b       	std	Y+18, r18	; 0x12
     fb4:	0e 94 3f 0a 	call	0x147e	; 0x147e <strnlen_P>
     fb8:	8c 01       	movw	r16, r24
     fba:	2a 89       	ldd	r18, Y+18	; 0x12
     fbc:	20 68       	ori	r18, 0x80	; 128
     fbe:	32 2e       	mov	r3, r18
     fc0:	23 fd       	sbrc	r18, 3
     fc2:	1a c0       	rjmp	.+52     	; 0xff8 <vfprintf+0x490>
     fc4:	8f 2d       	mov	r24, r15
     fc6:	90 e0       	ldi	r25, 0x00	; 0
     fc8:	08 17       	cp	r16, r24
     fca:	19 07       	cpc	r17, r25
     fcc:	a8 f4       	brcc	.+42     	; 0xff8 <vfprintf+0x490>
     fce:	b6 01       	movw	r22, r12
     fd0:	80 e2       	ldi	r24, 0x20	; 32
     fd2:	90 e0       	ldi	r25, 0x00	; 0
     fd4:	0e 94 55 0a 	call	0x14aa	; 0x14aa <fputc>
     fd8:	fa 94       	dec	r15
     fda:	f4 cf       	rjmp	.-24     	; 0xfc4 <vfprintf+0x45c>
     fdc:	f2 01       	movw	r30, r4
     fde:	37 fc       	sbrc	r3, 7
     fe0:	85 91       	lpm	r24, Z+
     fe2:	37 fe       	sbrs	r3, 7
     fe4:	81 91       	ld	r24, Z+
     fe6:	2f 01       	movw	r4, r30
     fe8:	b6 01       	movw	r22, r12
     fea:	90 e0       	ldi	r25, 0x00	; 0
     fec:	0e 94 55 0a 	call	0x14aa	; 0x14aa <fputc>
     ff0:	f1 10       	cpse	r15, r1
     ff2:	fa 94       	dec	r15
     ff4:	01 50       	subi	r16, 0x01	; 1
     ff6:	11 09       	sbc	r17, r1
     ff8:	01 15       	cp	r16, r1
     ffa:	11 05       	cpc	r17, r1
     ffc:	79 f7       	brne	.-34     	; 0xfdc <vfprintf+0x474>
     ffe:	f8 c0       	rjmp	.+496    	; 0x11f0 <vfprintf+0x688>
    1000:	84 36       	cpi	r24, 0x64	; 100
    1002:	11 f0       	breq	.+4      	; 0x1008 <vfprintf+0x4a0>
    1004:	89 36       	cpi	r24, 0x69	; 105
    1006:	59 f5       	brne	.+86     	; 0x105e <vfprintf+0x4f6>
    1008:	52 01       	movw	r10, r4
    100a:	27 ff       	sbrs	r18, 7
    100c:	09 c0       	rjmp	.+18     	; 0x1020 <vfprintf+0x4b8>
    100e:	f4 e0       	ldi	r31, 0x04	; 4
    1010:	af 0e       	add	r10, r31
    1012:	b1 1c       	adc	r11, r1
    1014:	f2 01       	movw	r30, r4
    1016:	60 81       	ld	r22, Z
    1018:	71 81       	ldd	r23, Z+1	; 0x01
    101a:	82 81       	ldd	r24, Z+2	; 0x02
    101c:	93 81       	ldd	r25, Z+3	; 0x03
    101e:	0a c0       	rjmp	.+20     	; 0x1034 <vfprintf+0x4cc>
    1020:	f2 e0       	ldi	r31, 0x02	; 2
    1022:	af 0e       	add	r10, r31
    1024:	b1 1c       	adc	r11, r1
    1026:	f2 01       	movw	r30, r4
    1028:	60 81       	ld	r22, Z
    102a:	71 81       	ldd	r23, Z+1	; 0x01
    102c:	07 2e       	mov	r0, r23
    102e:	00 0c       	add	r0, r0
    1030:	88 0b       	sbc	r24, r24
    1032:	99 0b       	sbc	r25, r25
    1034:	2f 76       	andi	r18, 0x6F	; 111
    1036:	32 2e       	mov	r3, r18
    1038:	97 ff       	sbrs	r25, 7
    103a:	09 c0       	rjmp	.+18     	; 0x104e <vfprintf+0x4e6>
    103c:	90 95       	com	r25
    103e:	80 95       	com	r24
    1040:	70 95       	com	r23
    1042:	61 95       	neg	r22
    1044:	7f 4f       	sbci	r23, 0xFF	; 255
    1046:	8f 4f       	sbci	r24, 0xFF	; 255
    1048:	9f 4f       	sbci	r25, 0xFF	; 255
    104a:	20 68       	ori	r18, 0x80	; 128
    104c:	32 2e       	mov	r3, r18
    104e:	2a e0       	ldi	r18, 0x0A	; 10
    1050:	30 e0       	ldi	r19, 0x00	; 0
    1052:	a3 01       	movw	r20, r6
    1054:	0e 94 d3 0a 	call	0x15a6	; 0x15a6 <__ultoa_invert>
    1058:	e8 2e       	mov	r14, r24
    105a:	e6 18       	sub	r14, r6
    105c:	3f c0       	rjmp	.+126    	; 0x10dc <vfprintf+0x574>
    105e:	02 2f       	mov	r16, r18
    1060:	85 37       	cpi	r24, 0x75	; 117
    1062:	21 f4       	brne	.+8      	; 0x106c <vfprintf+0x504>
    1064:	0f 7e       	andi	r16, 0xEF	; 239
    1066:	2a e0       	ldi	r18, 0x0A	; 10
    1068:	30 e0       	ldi	r19, 0x00	; 0
    106a:	1d c0       	rjmp	.+58     	; 0x10a6 <vfprintf+0x53e>
    106c:	09 7f       	andi	r16, 0xF9	; 249
    106e:	8f 36       	cpi	r24, 0x6F	; 111
    1070:	91 f0       	breq	.+36     	; 0x1096 <vfprintf+0x52e>
    1072:	18 f4       	brcc	.+6      	; 0x107a <vfprintf+0x512>
    1074:	88 35       	cpi	r24, 0x58	; 88
    1076:	59 f0       	breq	.+22     	; 0x108e <vfprintf+0x526>
    1078:	c5 c0       	rjmp	.+394    	; 0x1204 <vfprintf+0x69c>
    107a:	80 37       	cpi	r24, 0x70	; 112
    107c:	19 f0       	breq	.+6      	; 0x1084 <vfprintf+0x51c>
    107e:	88 37       	cpi	r24, 0x78	; 120
    1080:	11 f0       	breq	.+4      	; 0x1086 <vfprintf+0x51e>
    1082:	c0 c0       	rjmp	.+384    	; 0x1204 <vfprintf+0x69c>
    1084:	00 61       	ori	r16, 0x10	; 16
    1086:	04 ff       	sbrs	r16, 4
    1088:	09 c0       	rjmp	.+18     	; 0x109c <vfprintf+0x534>
    108a:	04 60       	ori	r16, 0x04	; 4
    108c:	07 c0       	rjmp	.+14     	; 0x109c <vfprintf+0x534>
    108e:	24 ff       	sbrs	r18, 4
    1090:	08 c0       	rjmp	.+16     	; 0x10a2 <vfprintf+0x53a>
    1092:	06 60       	ori	r16, 0x06	; 6
    1094:	06 c0       	rjmp	.+12     	; 0x10a2 <vfprintf+0x53a>
    1096:	28 e0       	ldi	r18, 0x08	; 8
    1098:	30 e0       	ldi	r19, 0x00	; 0
    109a:	05 c0       	rjmp	.+10     	; 0x10a6 <vfprintf+0x53e>
    109c:	20 e1       	ldi	r18, 0x10	; 16
    109e:	30 e0       	ldi	r19, 0x00	; 0
    10a0:	02 c0       	rjmp	.+4      	; 0x10a6 <vfprintf+0x53e>
    10a2:	20 e1       	ldi	r18, 0x10	; 16
    10a4:	32 e0       	ldi	r19, 0x02	; 2
    10a6:	52 01       	movw	r10, r4
    10a8:	07 ff       	sbrs	r16, 7
    10aa:	09 c0       	rjmp	.+18     	; 0x10be <vfprintf+0x556>
    10ac:	f4 e0       	ldi	r31, 0x04	; 4
    10ae:	af 0e       	add	r10, r31
    10b0:	b1 1c       	adc	r11, r1
    10b2:	f2 01       	movw	r30, r4
    10b4:	60 81       	ld	r22, Z
    10b6:	71 81       	ldd	r23, Z+1	; 0x01
    10b8:	82 81       	ldd	r24, Z+2	; 0x02
    10ba:	93 81       	ldd	r25, Z+3	; 0x03
    10bc:	08 c0       	rjmp	.+16     	; 0x10ce <vfprintf+0x566>
    10be:	f2 e0       	ldi	r31, 0x02	; 2
    10c0:	af 0e       	add	r10, r31
    10c2:	b1 1c       	adc	r11, r1
    10c4:	f2 01       	movw	r30, r4
    10c6:	60 81       	ld	r22, Z
    10c8:	71 81       	ldd	r23, Z+1	; 0x01
    10ca:	80 e0       	ldi	r24, 0x00	; 0
    10cc:	90 e0       	ldi	r25, 0x00	; 0
    10ce:	a3 01       	movw	r20, r6
    10d0:	0e 94 d3 0a 	call	0x15a6	; 0x15a6 <__ultoa_invert>
    10d4:	e8 2e       	mov	r14, r24
    10d6:	e6 18       	sub	r14, r6
    10d8:	0f 77       	andi	r16, 0x7F	; 127
    10da:	30 2e       	mov	r3, r16
    10dc:	36 fe       	sbrs	r3, 6
    10de:	0b c0       	rjmp	.+22     	; 0x10f6 <vfprintf+0x58e>
    10e0:	33 2d       	mov	r19, r3
    10e2:	3e 7f       	andi	r19, 0xFE	; 254
    10e4:	e1 16       	cp	r14, r17
    10e6:	50 f4       	brcc	.+20     	; 0x10fc <vfprintf+0x594>
    10e8:	34 fe       	sbrs	r3, 4
    10ea:	0a c0       	rjmp	.+20     	; 0x1100 <vfprintf+0x598>
    10ec:	32 fc       	sbrc	r3, 2
    10ee:	08 c0       	rjmp	.+16     	; 0x1100 <vfprintf+0x598>
    10f0:	33 2d       	mov	r19, r3
    10f2:	3e 7e       	andi	r19, 0xEE	; 238
    10f4:	05 c0       	rjmp	.+10     	; 0x1100 <vfprintf+0x598>
    10f6:	0e 2d       	mov	r16, r14
    10f8:	33 2d       	mov	r19, r3
    10fa:	03 c0       	rjmp	.+6      	; 0x1102 <vfprintf+0x59a>
    10fc:	0e 2d       	mov	r16, r14
    10fe:	01 c0       	rjmp	.+2      	; 0x1102 <vfprintf+0x59a>
    1100:	01 2f       	mov	r16, r17
    1102:	34 ff       	sbrs	r19, 4
    1104:	0c c0       	rjmp	.+24     	; 0x111e <vfprintf+0x5b6>
    1106:	fe 01       	movw	r30, r28
    1108:	ee 0d       	add	r30, r14
    110a:	f1 1d       	adc	r31, r1
    110c:	80 81       	ld	r24, Z
    110e:	80 33       	cpi	r24, 0x30	; 48
    1110:	11 f4       	brne	.+4      	; 0x1116 <vfprintf+0x5ae>
    1112:	39 7e       	andi	r19, 0xE9	; 233
    1114:	08 c0       	rjmp	.+16     	; 0x1126 <vfprintf+0x5be>
    1116:	32 ff       	sbrs	r19, 2
    1118:	05 c0       	rjmp	.+10     	; 0x1124 <vfprintf+0x5bc>
    111a:	0e 5f       	subi	r16, 0xFE	; 254
    111c:	04 c0       	rjmp	.+8      	; 0x1126 <vfprintf+0x5be>
    111e:	83 2f       	mov	r24, r19
    1120:	86 78       	andi	r24, 0x86	; 134
    1122:	09 f0       	breq	.+2      	; 0x1126 <vfprintf+0x5be>
    1124:	0f 5f       	subi	r16, 0xFF	; 255
    1126:	33 fd       	sbrc	r19, 3
    1128:	13 c0       	rjmp	.+38     	; 0x1150 <vfprintf+0x5e8>
    112a:	30 ff       	sbrs	r19, 0
    112c:	06 c0       	rjmp	.+12     	; 0x113a <vfprintf+0x5d2>
    112e:	1e 2d       	mov	r17, r14
    1130:	0f 15       	cp	r16, r15
    1132:	18 f4       	brcc	.+6      	; 0x113a <vfprintf+0x5d2>
    1134:	1f 0d       	add	r17, r15
    1136:	10 1b       	sub	r17, r16
    1138:	0f 2d       	mov	r16, r15
    113a:	0f 15       	cp	r16, r15
    113c:	68 f4       	brcc	.+26     	; 0x1158 <vfprintf+0x5f0>
    113e:	b6 01       	movw	r22, r12
    1140:	80 e2       	ldi	r24, 0x20	; 32
    1142:	90 e0       	ldi	r25, 0x00	; 0
    1144:	3b 8b       	std	Y+19, r19	; 0x13
    1146:	0e 94 55 0a 	call	0x14aa	; 0x14aa <fputc>
    114a:	0f 5f       	subi	r16, 0xFF	; 255
    114c:	3b 89       	ldd	r19, Y+19	; 0x13
    114e:	f5 cf       	rjmp	.-22     	; 0x113a <vfprintf+0x5d2>
    1150:	0f 15       	cp	r16, r15
    1152:	10 f4       	brcc	.+4      	; 0x1158 <vfprintf+0x5f0>
    1154:	f0 1a       	sub	r15, r16
    1156:	01 c0       	rjmp	.+2      	; 0x115a <vfprintf+0x5f2>
    1158:	f1 2c       	mov	r15, r1
    115a:	34 ff       	sbrs	r19, 4
    115c:	12 c0       	rjmp	.+36     	; 0x1182 <vfprintf+0x61a>
    115e:	b6 01       	movw	r22, r12
    1160:	80 e3       	ldi	r24, 0x30	; 48
    1162:	90 e0       	ldi	r25, 0x00	; 0
    1164:	3b 8b       	std	Y+19, r19	; 0x13
    1166:	0e 94 55 0a 	call	0x14aa	; 0x14aa <fputc>
    116a:	3b 89       	ldd	r19, Y+19	; 0x13
    116c:	32 ff       	sbrs	r19, 2
    116e:	17 c0       	rjmp	.+46     	; 0x119e <vfprintf+0x636>
    1170:	31 fd       	sbrc	r19, 1
    1172:	03 c0       	rjmp	.+6      	; 0x117a <vfprintf+0x612>
    1174:	88 e7       	ldi	r24, 0x78	; 120
    1176:	90 e0       	ldi	r25, 0x00	; 0
    1178:	02 c0       	rjmp	.+4      	; 0x117e <vfprintf+0x616>
    117a:	88 e5       	ldi	r24, 0x58	; 88
    117c:	90 e0       	ldi	r25, 0x00	; 0
    117e:	b6 01       	movw	r22, r12
    1180:	0c c0       	rjmp	.+24     	; 0x119a <vfprintf+0x632>
    1182:	83 2f       	mov	r24, r19
    1184:	86 78       	andi	r24, 0x86	; 134
    1186:	59 f0       	breq	.+22     	; 0x119e <vfprintf+0x636>
    1188:	31 ff       	sbrs	r19, 1
    118a:	02 c0       	rjmp	.+4      	; 0x1190 <vfprintf+0x628>
    118c:	8b e2       	ldi	r24, 0x2B	; 43
    118e:	01 c0       	rjmp	.+2      	; 0x1192 <vfprintf+0x62a>
    1190:	80 e2       	ldi	r24, 0x20	; 32
    1192:	37 fd       	sbrc	r19, 7
    1194:	8d e2       	ldi	r24, 0x2D	; 45
    1196:	b6 01       	movw	r22, r12
    1198:	90 e0       	ldi	r25, 0x00	; 0
    119a:	0e 94 55 0a 	call	0x14aa	; 0x14aa <fputc>
    119e:	e1 16       	cp	r14, r17
    11a0:	38 f4       	brcc	.+14     	; 0x11b0 <vfprintf+0x648>
    11a2:	b6 01       	movw	r22, r12
    11a4:	80 e3       	ldi	r24, 0x30	; 48
    11a6:	90 e0       	ldi	r25, 0x00	; 0
    11a8:	0e 94 55 0a 	call	0x14aa	; 0x14aa <fputc>
    11ac:	11 50       	subi	r17, 0x01	; 1
    11ae:	f7 cf       	rjmp	.-18     	; 0x119e <vfprintf+0x636>
    11b0:	ea 94       	dec	r14
    11b2:	f3 01       	movw	r30, r6
    11b4:	ee 0d       	add	r30, r14
    11b6:	f1 1d       	adc	r31, r1
    11b8:	80 81       	ld	r24, Z
    11ba:	b6 01       	movw	r22, r12
    11bc:	90 e0       	ldi	r25, 0x00	; 0
    11be:	0e 94 55 0a 	call	0x14aa	; 0x14aa <fputc>
    11c2:	e1 10       	cpse	r14, r1
    11c4:	f5 cf       	rjmp	.-22     	; 0x11b0 <vfprintf+0x648>
    11c6:	14 c0       	rjmp	.+40     	; 0x11f0 <vfprintf+0x688>
    11c8:	f4 e0       	ldi	r31, 0x04	; 4
    11ca:	ff 15       	cp	r31, r15
    11cc:	58 f5       	brcc	.+86     	; 0x1224 <vfprintf+0x6bc>
    11ce:	84 e0       	ldi	r24, 0x04	; 4
    11d0:	f8 1a       	sub	r15, r24
    11d2:	33 fe       	sbrs	r3, 3
    11d4:	1e c0       	rjmp	.+60     	; 0x1212 <vfprintf+0x6aa>
    11d6:	21 10       	cpse	r2, r1
    11d8:	26 c0       	rjmp	.+76     	; 0x1226 <vfprintf+0x6be>
    11da:	03 ff       	sbrs	r16, 3
    11dc:	2a c0       	rjmp	.+84     	; 0x1232 <vfprintf+0x6ca>
    11de:	08 e6       	ldi	r16, 0x68	; 104
    11e0:	10 e0       	ldi	r17, 0x00	; 0
    11e2:	f3 2d       	mov	r31, r3
    11e4:	f0 71       	andi	r31, 0x10	; 16
    11e6:	3f 2e       	mov	r3, r31
    11e8:	f8 01       	movw	r30, r16
    11ea:	84 91       	lpm	r24, Z
    11ec:	81 11       	cpse	r24, r1
    11ee:	24 c0       	rjmp	.+72     	; 0x1238 <vfprintf+0x6d0>
    11f0:	ff 20       	and	r15, r15
    11f2:	09 f4       	brne	.+2      	; 0x11f6 <vfprintf+0x68e>
    11f4:	e5 cc       	rjmp	.-1590   	; 0xbc0 <vfprintf+0x58>
    11f6:	b6 01       	movw	r22, r12
    11f8:	80 e2       	ldi	r24, 0x20	; 32
    11fa:	90 e0       	ldi	r25, 0x00	; 0
    11fc:	0e 94 55 0a 	call	0x14aa	; 0x14aa <fputc>
    1200:	fa 94       	dec	r15
    1202:	f6 cf       	rjmp	.-20     	; 0x11f0 <vfprintf+0x688>
    1204:	f6 01       	movw	r30, r12
    1206:	86 81       	ldd	r24, Z+6	; 0x06
    1208:	97 81       	ldd	r25, Z+7	; 0x07
    120a:	26 c0       	rjmp	.+76     	; 0x1258 <vfprintf+0x6f0>
    120c:	8f ef       	ldi	r24, 0xFF	; 255
    120e:	9f ef       	ldi	r25, 0xFF	; 255
    1210:	23 c0       	rjmp	.+70     	; 0x1258 <vfprintf+0x6f0>
    1212:	b6 01       	movw	r22, r12
    1214:	80 e2       	ldi	r24, 0x20	; 32
    1216:	90 e0       	ldi	r25, 0x00	; 0
    1218:	0e 94 55 0a 	call	0x14aa	; 0x14aa <fputc>
    121c:	fa 94       	dec	r15
    121e:	f1 10       	cpse	r15, r1
    1220:	f8 cf       	rjmp	.-16     	; 0x1212 <vfprintf+0x6aa>
    1222:	d9 cf       	rjmp	.-78     	; 0x11d6 <vfprintf+0x66e>
    1224:	f1 2c       	mov	r15, r1
    1226:	b6 01       	movw	r22, r12
    1228:	82 2d       	mov	r24, r2
    122a:	90 e0       	ldi	r25, 0x00	; 0
    122c:	0e 94 55 0a 	call	0x14aa	; 0x14aa <fputc>
    1230:	d4 cf       	rjmp	.-88     	; 0x11da <vfprintf+0x672>
    1232:	0c e6       	ldi	r16, 0x6C	; 108
    1234:	10 e0       	ldi	r17, 0x00	; 0
    1236:	d5 cf       	rjmp	.-86     	; 0x11e2 <vfprintf+0x67a>
    1238:	31 10       	cpse	r3, r1
    123a:	80 52       	subi	r24, 0x20	; 32
    123c:	b6 01       	movw	r22, r12
    123e:	90 e0       	ldi	r25, 0x00	; 0
    1240:	0e 94 55 0a 	call	0x14aa	; 0x14aa <fputc>
    1244:	0f 5f       	subi	r16, 0xFF	; 255
    1246:	1f 4f       	sbci	r17, 0xFF	; 255
    1248:	cf cf       	rjmp	.-98     	; 0x11e8 <vfprintf+0x680>
    124a:	23 e0       	ldi	r18, 0x03	; 3
    124c:	2f 15       	cp	r18, r15
    124e:	10 f4       	brcc	.+4      	; 0x1254 <vfprintf+0x6ec>
    1250:	83 e0       	ldi	r24, 0x03	; 3
    1252:	be cf       	rjmp	.-132    	; 0x11d0 <vfprintf+0x668>
    1254:	f1 2c       	mov	r15, r1
    1256:	c1 cf       	rjmp	.-126    	; 0x11da <vfprintf+0x672>
    1258:	63 96       	adiw	r28, 0x13	; 19
    125a:	e2 e1       	ldi	r30, 0x12	; 18
    125c:	0c 94 4c 09 	jmp	0x1298	; 0x1298 <__epilogue_restores__>

00001260 <__prologue_saves__>:
    1260:	2f 92       	push	r2
    1262:	3f 92       	push	r3
    1264:	4f 92       	push	r4
    1266:	5f 92       	push	r5
    1268:	6f 92       	push	r6
    126a:	7f 92       	push	r7
    126c:	8f 92       	push	r8
    126e:	9f 92       	push	r9
    1270:	af 92       	push	r10
    1272:	bf 92       	push	r11
    1274:	cf 92       	push	r12
    1276:	df 92       	push	r13
    1278:	ef 92       	push	r14
    127a:	ff 92       	push	r15
    127c:	0f 93       	push	r16
    127e:	1f 93       	push	r17
    1280:	cf 93       	push	r28
    1282:	df 93       	push	r29
    1284:	cd b7       	in	r28, 0x3d	; 61
    1286:	de b7       	in	r29, 0x3e	; 62
    1288:	ca 1b       	sub	r28, r26
    128a:	db 0b       	sbc	r29, r27
    128c:	0f b6       	in	r0, 0x3f	; 63
    128e:	f8 94       	cli
    1290:	de bf       	out	0x3e, r29	; 62
    1292:	0f be       	out	0x3f, r0	; 63
    1294:	cd bf       	out	0x3d, r28	; 61
    1296:	09 94       	ijmp

00001298 <__epilogue_restores__>:
    1298:	2a 88       	ldd	r2, Y+18	; 0x12
    129a:	39 88       	ldd	r3, Y+17	; 0x11
    129c:	48 88       	ldd	r4, Y+16	; 0x10
    129e:	5f 84       	ldd	r5, Y+15	; 0x0f
    12a0:	6e 84       	ldd	r6, Y+14	; 0x0e
    12a2:	7d 84       	ldd	r7, Y+13	; 0x0d
    12a4:	8c 84       	ldd	r8, Y+12	; 0x0c
    12a6:	9b 84       	ldd	r9, Y+11	; 0x0b
    12a8:	aa 84       	ldd	r10, Y+10	; 0x0a
    12aa:	b9 84       	ldd	r11, Y+9	; 0x09
    12ac:	c8 84       	ldd	r12, Y+8	; 0x08
    12ae:	df 80       	ldd	r13, Y+7	; 0x07
    12b0:	ee 80       	ldd	r14, Y+6	; 0x06
    12b2:	fd 80       	ldd	r15, Y+5	; 0x05
    12b4:	0c 81       	ldd	r16, Y+4	; 0x04
    12b6:	1b 81       	ldd	r17, Y+3	; 0x03
    12b8:	aa 81       	ldd	r26, Y+2	; 0x02
    12ba:	b9 81       	ldd	r27, Y+1	; 0x01
    12bc:	ce 0f       	add	r28, r30
    12be:	d1 1d       	adc	r29, r1
    12c0:	0f b6       	in	r0, 0x3f	; 63
    12c2:	f8 94       	cli
    12c4:	de bf       	out	0x3e, r29	; 62
    12c6:	0f be       	out	0x3f, r0	; 63
    12c8:	cd bf       	out	0x3d, r28	; 61
    12ca:	ed 01       	movw	r28, r26
    12cc:	08 95       	ret

000012ce <__ftoa_engine>:
    12ce:	28 30       	cpi	r18, 0x08	; 8
    12d0:	08 f0       	brcs	.+2      	; 0x12d4 <__ftoa_engine+0x6>
    12d2:	27 e0       	ldi	r18, 0x07	; 7
    12d4:	33 27       	eor	r19, r19
    12d6:	da 01       	movw	r26, r20
    12d8:	99 0f       	add	r25, r25
    12da:	31 1d       	adc	r19, r1
    12dc:	87 fd       	sbrc	r24, 7
    12de:	91 60       	ori	r25, 0x01	; 1
    12e0:	00 96       	adiw	r24, 0x00	; 0
    12e2:	61 05       	cpc	r22, r1
    12e4:	71 05       	cpc	r23, r1
    12e6:	39 f4       	brne	.+14     	; 0x12f6 <__ftoa_engine+0x28>
    12e8:	32 60       	ori	r19, 0x02	; 2
    12ea:	2e 5f       	subi	r18, 0xFE	; 254
    12ec:	3d 93       	st	X+, r19
    12ee:	30 e3       	ldi	r19, 0x30	; 48
    12f0:	2a 95       	dec	r18
    12f2:	e1 f7       	brne	.-8      	; 0x12ec <__ftoa_engine+0x1e>
    12f4:	08 95       	ret
    12f6:	9f 3f       	cpi	r25, 0xFF	; 255
    12f8:	30 f0       	brcs	.+12     	; 0x1306 <__ftoa_engine+0x38>
    12fa:	80 38       	cpi	r24, 0x80	; 128
    12fc:	71 05       	cpc	r23, r1
    12fe:	61 05       	cpc	r22, r1
    1300:	09 f0       	breq	.+2      	; 0x1304 <__ftoa_engine+0x36>
    1302:	3c 5f       	subi	r19, 0xFC	; 252
    1304:	3c 5f       	subi	r19, 0xFC	; 252
    1306:	3d 93       	st	X+, r19
    1308:	91 30       	cpi	r25, 0x01	; 1
    130a:	08 f0       	brcs	.+2      	; 0x130e <__ftoa_engine+0x40>
    130c:	80 68       	ori	r24, 0x80	; 128
    130e:	91 1d       	adc	r25, r1
    1310:	df 93       	push	r29
    1312:	cf 93       	push	r28
    1314:	1f 93       	push	r17
    1316:	0f 93       	push	r16
    1318:	ff 92       	push	r15
    131a:	ef 92       	push	r14
    131c:	19 2f       	mov	r17, r25
    131e:	98 7f       	andi	r25, 0xF8	; 248
    1320:	96 95       	lsr	r25
    1322:	e9 2f       	mov	r30, r25
    1324:	96 95       	lsr	r25
    1326:	96 95       	lsr	r25
    1328:	e9 0f       	add	r30, r25
    132a:	ff 27       	eor	r31, r31
    132c:	e6 53       	subi	r30, 0x36	; 54
    132e:	ff 4f       	sbci	r31, 0xFF	; 255
    1330:	99 27       	eor	r25, r25
    1332:	33 27       	eor	r19, r19
    1334:	ee 24       	eor	r14, r14
    1336:	ff 24       	eor	r15, r15
    1338:	a7 01       	movw	r20, r14
    133a:	e7 01       	movw	r28, r14
    133c:	05 90       	lpm	r0, Z+
    133e:	08 94       	sec
    1340:	07 94       	ror	r0
    1342:	28 f4       	brcc	.+10     	; 0x134e <__ftoa_engine+0x80>
    1344:	36 0f       	add	r19, r22
    1346:	e7 1e       	adc	r14, r23
    1348:	f8 1e       	adc	r15, r24
    134a:	49 1f       	adc	r20, r25
    134c:	51 1d       	adc	r21, r1
    134e:	66 0f       	add	r22, r22
    1350:	77 1f       	adc	r23, r23
    1352:	88 1f       	adc	r24, r24
    1354:	99 1f       	adc	r25, r25
    1356:	06 94       	lsr	r0
    1358:	a1 f7       	brne	.-24     	; 0x1342 <__ftoa_engine+0x74>
    135a:	05 90       	lpm	r0, Z+
    135c:	07 94       	ror	r0
    135e:	28 f4       	brcc	.+10     	; 0x136a <__ftoa_engine+0x9c>
    1360:	e7 0e       	add	r14, r23
    1362:	f8 1e       	adc	r15, r24
    1364:	49 1f       	adc	r20, r25
    1366:	56 1f       	adc	r21, r22
    1368:	c1 1d       	adc	r28, r1
    136a:	77 0f       	add	r23, r23
    136c:	88 1f       	adc	r24, r24
    136e:	99 1f       	adc	r25, r25
    1370:	66 1f       	adc	r22, r22
    1372:	06 94       	lsr	r0
    1374:	a1 f7       	brne	.-24     	; 0x135e <__ftoa_engine+0x90>
    1376:	05 90       	lpm	r0, Z+
    1378:	07 94       	ror	r0
    137a:	28 f4       	brcc	.+10     	; 0x1386 <__ftoa_engine+0xb8>
    137c:	f8 0e       	add	r15, r24
    137e:	49 1f       	adc	r20, r25
    1380:	56 1f       	adc	r21, r22
    1382:	c7 1f       	adc	r28, r23
    1384:	d1 1d       	adc	r29, r1
    1386:	88 0f       	add	r24, r24
    1388:	99 1f       	adc	r25, r25
    138a:	66 1f       	adc	r22, r22
    138c:	77 1f       	adc	r23, r23
    138e:	06 94       	lsr	r0
    1390:	a1 f7       	brne	.-24     	; 0x137a <__ftoa_engine+0xac>
    1392:	05 90       	lpm	r0, Z+
    1394:	07 94       	ror	r0
    1396:	20 f4       	brcc	.+8      	; 0x13a0 <__ftoa_engine+0xd2>
    1398:	49 0f       	add	r20, r25
    139a:	56 1f       	adc	r21, r22
    139c:	c7 1f       	adc	r28, r23
    139e:	d8 1f       	adc	r29, r24
    13a0:	99 0f       	add	r25, r25
    13a2:	66 1f       	adc	r22, r22
    13a4:	77 1f       	adc	r23, r23
    13a6:	88 1f       	adc	r24, r24
    13a8:	06 94       	lsr	r0
    13aa:	a9 f7       	brne	.-22     	; 0x1396 <__ftoa_engine+0xc8>
    13ac:	84 91       	lpm	r24, Z
    13ae:	10 95       	com	r17
    13b0:	17 70       	andi	r17, 0x07	; 7
    13b2:	41 f0       	breq	.+16     	; 0x13c4 <__ftoa_engine+0xf6>
    13b4:	d6 95       	lsr	r29
    13b6:	c7 95       	ror	r28
    13b8:	57 95       	ror	r21
    13ba:	47 95       	ror	r20
    13bc:	f7 94       	ror	r15
    13be:	e7 94       	ror	r14
    13c0:	1a 95       	dec	r17
    13c2:	c1 f7       	brne	.-16     	; 0x13b4 <__ftoa_engine+0xe6>
    13c4:	e0 e7       	ldi	r30, 0x70	; 112
    13c6:	f0 e0       	ldi	r31, 0x00	; 0
    13c8:	68 94       	set
    13ca:	15 90       	lpm	r1, Z+
    13cc:	15 91       	lpm	r17, Z+
    13ce:	35 91       	lpm	r19, Z+
    13d0:	65 91       	lpm	r22, Z+
    13d2:	95 91       	lpm	r25, Z+
    13d4:	05 90       	lpm	r0, Z+
    13d6:	7f e2       	ldi	r23, 0x2F	; 47
    13d8:	73 95       	inc	r23
    13da:	e1 18       	sub	r14, r1
    13dc:	f1 0a       	sbc	r15, r17
    13de:	43 0b       	sbc	r20, r19
    13e0:	56 0b       	sbc	r21, r22
    13e2:	c9 0b       	sbc	r28, r25
    13e4:	d0 09       	sbc	r29, r0
    13e6:	c0 f7       	brcc	.-16     	; 0x13d8 <__ftoa_engine+0x10a>
    13e8:	e1 0c       	add	r14, r1
    13ea:	f1 1e       	adc	r15, r17
    13ec:	43 1f       	adc	r20, r19
    13ee:	56 1f       	adc	r21, r22
    13f0:	c9 1f       	adc	r28, r25
    13f2:	d0 1d       	adc	r29, r0
    13f4:	7e f4       	brtc	.+30     	; 0x1414 <__ftoa_engine+0x146>
    13f6:	70 33       	cpi	r23, 0x30	; 48
    13f8:	11 f4       	brne	.+4      	; 0x13fe <__ftoa_engine+0x130>
    13fa:	8a 95       	dec	r24
    13fc:	e6 cf       	rjmp	.-52     	; 0x13ca <__ftoa_engine+0xfc>
    13fe:	e8 94       	clt
    1400:	01 50       	subi	r16, 0x01	; 1
    1402:	30 f0       	brcs	.+12     	; 0x1410 <__ftoa_engine+0x142>
    1404:	08 0f       	add	r16, r24
    1406:	0a f4       	brpl	.+2      	; 0x140a <__ftoa_engine+0x13c>
    1408:	00 27       	eor	r16, r16
    140a:	02 17       	cp	r16, r18
    140c:	08 f4       	brcc	.+2      	; 0x1410 <__ftoa_engine+0x142>
    140e:	20 2f       	mov	r18, r16
    1410:	23 95       	inc	r18
    1412:	02 2f       	mov	r16, r18
    1414:	7a 33       	cpi	r23, 0x3A	; 58
    1416:	28 f0       	brcs	.+10     	; 0x1422 <__ftoa_engine+0x154>
    1418:	79 e3       	ldi	r23, 0x39	; 57
    141a:	7d 93       	st	X+, r23
    141c:	2a 95       	dec	r18
    141e:	e9 f7       	brne	.-6      	; 0x141a <__ftoa_engine+0x14c>
    1420:	10 c0       	rjmp	.+32     	; 0x1442 <__ftoa_engine+0x174>
    1422:	7d 93       	st	X+, r23
    1424:	2a 95       	dec	r18
    1426:	89 f6       	brne	.-94     	; 0x13ca <__ftoa_engine+0xfc>
    1428:	06 94       	lsr	r0
    142a:	97 95       	ror	r25
    142c:	67 95       	ror	r22
    142e:	37 95       	ror	r19
    1430:	17 95       	ror	r17
    1432:	17 94       	ror	r1
    1434:	e1 18       	sub	r14, r1
    1436:	f1 0a       	sbc	r15, r17
    1438:	43 0b       	sbc	r20, r19
    143a:	56 0b       	sbc	r21, r22
    143c:	c9 0b       	sbc	r28, r25
    143e:	d0 09       	sbc	r29, r0
    1440:	98 f0       	brcs	.+38     	; 0x1468 <__ftoa_engine+0x19a>
    1442:	23 95       	inc	r18
    1444:	7e 91       	ld	r23, -X
    1446:	73 95       	inc	r23
    1448:	7a 33       	cpi	r23, 0x3A	; 58
    144a:	08 f0       	brcs	.+2      	; 0x144e <__ftoa_engine+0x180>
    144c:	70 e3       	ldi	r23, 0x30	; 48
    144e:	7c 93       	st	X, r23
    1450:	20 13       	cpse	r18, r16
    1452:	b8 f7       	brcc	.-18     	; 0x1442 <__ftoa_engine+0x174>
    1454:	7e 91       	ld	r23, -X
    1456:	70 61       	ori	r23, 0x10	; 16
    1458:	7d 93       	st	X+, r23
    145a:	30 f0       	brcs	.+12     	; 0x1468 <__ftoa_engine+0x19a>
    145c:	83 95       	inc	r24
    145e:	71 e3       	ldi	r23, 0x31	; 49
    1460:	7d 93       	st	X+, r23
    1462:	70 e3       	ldi	r23, 0x30	; 48
    1464:	2a 95       	dec	r18
    1466:	e1 f7       	brne	.-8      	; 0x1460 <__ftoa_engine+0x192>
    1468:	11 24       	eor	r1, r1
    146a:	ef 90       	pop	r14
    146c:	ff 90       	pop	r15
    146e:	0f 91       	pop	r16
    1470:	1f 91       	pop	r17
    1472:	cf 91       	pop	r28
    1474:	df 91       	pop	r29
    1476:	99 27       	eor	r25, r25
    1478:	87 fd       	sbrc	r24, 7
    147a:	90 95       	com	r25
    147c:	08 95       	ret

0000147e <strnlen_P>:
    147e:	fc 01       	movw	r30, r24
    1480:	05 90       	lpm	r0, Z+
    1482:	61 50       	subi	r22, 0x01	; 1
    1484:	70 40       	sbci	r23, 0x00	; 0
    1486:	01 10       	cpse	r0, r1
    1488:	d8 f7       	brcc	.-10     	; 0x1480 <strnlen_P+0x2>
    148a:	80 95       	com	r24
    148c:	90 95       	com	r25
    148e:	8e 0f       	add	r24, r30
    1490:	9f 1f       	adc	r25, r31
    1492:	08 95       	ret

00001494 <strnlen>:
    1494:	fc 01       	movw	r30, r24
    1496:	61 50       	subi	r22, 0x01	; 1
    1498:	70 40       	sbci	r23, 0x00	; 0
    149a:	01 90       	ld	r0, Z+
    149c:	01 10       	cpse	r0, r1
    149e:	d8 f7       	brcc	.-10     	; 0x1496 <strnlen+0x2>
    14a0:	80 95       	com	r24
    14a2:	90 95       	com	r25
    14a4:	8e 0f       	add	r24, r30
    14a6:	9f 1f       	adc	r25, r31
    14a8:	08 95       	ret

000014aa <fputc>:
    14aa:	0f 93       	push	r16
    14ac:	1f 93       	push	r17
    14ae:	cf 93       	push	r28
    14b0:	df 93       	push	r29
    14b2:	fb 01       	movw	r30, r22
    14b4:	23 81       	ldd	r18, Z+3	; 0x03
    14b6:	21 fd       	sbrc	r18, 1
    14b8:	03 c0       	rjmp	.+6      	; 0x14c0 <fputc+0x16>
    14ba:	8f ef       	ldi	r24, 0xFF	; 255
    14bc:	9f ef       	ldi	r25, 0xFF	; 255
    14be:	28 c0       	rjmp	.+80     	; 0x1510 <fputc+0x66>
    14c0:	22 ff       	sbrs	r18, 2
    14c2:	16 c0       	rjmp	.+44     	; 0x14f0 <fputc+0x46>
    14c4:	46 81       	ldd	r20, Z+6	; 0x06
    14c6:	57 81       	ldd	r21, Z+7	; 0x07
    14c8:	24 81       	ldd	r18, Z+4	; 0x04
    14ca:	35 81       	ldd	r19, Z+5	; 0x05
    14cc:	42 17       	cp	r20, r18
    14ce:	53 07       	cpc	r21, r19
    14d0:	44 f4       	brge	.+16     	; 0x14e2 <fputc+0x38>
    14d2:	a0 81       	ld	r26, Z
    14d4:	b1 81       	ldd	r27, Z+1	; 0x01
    14d6:	9d 01       	movw	r18, r26
    14d8:	2f 5f       	subi	r18, 0xFF	; 255
    14da:	3f 4f       	sbci	r19, 0xFF	; 255
    14dc:	31 83       	std	Z+1, r19	; 0x01
    14de:	20 83       	st	Z, r18
    14e0:	8c 93       	st	X, r24
    14e2:	26 81       	ldd	r18, Z+6	; 0x06
    14e4:	37 81       	ldd	r19, Z+7	; 0x07
    14e6:	2f 5f       	subi	r18, 0xFF	; 255
    14e8:	3f 4f       	sbci	r19, 0xFF	; 255
    14ea:	37 83       	std	Z+7, r19	; 0x07
    14ec:	26 83       	std	Z+6, r18	; 0x06
    14ee:	10 c0       	rjmp	.+32     	; 0x1510 <fputc+0x66>
    14f0:	eb 01       	movw	r28, r22
    14f2:	09 2f       	mov	r16, r25
    14f4:	18 2f       	mov	r17, r24
    14f6:	00 84       	ldd	r0, Z+8	; 0x08
    14f8:	f1 85       	ldd	r31, Z+9	; 0x09
    14fa:	e0 2d       	mov	r30, r0
    14fc:	09 95       	icall
    14fe:	89 2b       	or	r24, r25
    1500:	e1 f6       	brne	.-72     	; 0x14ba <fputc+0x10>
    1502:	8e 81       	ldd	r24, Y+6	; 0x06
    1504:	9f 81       	ldd	r25, Y+7	; 0x07
    1506:	01 96       	adiw	r24, 0x01	; 1
    1508:	9f 83       	std	Y+7, r25	; 0x07
    150a:	8e 83       	std	Y+6, r24	; 0x06
    150c:	81 2f       	mov	r24, r17
    150e:	90 2f       	mov	r25, r16
    1510:	df 91       	pop	r29
    1512:	cf 91       	pop	r28
    1514:	1f 91       	pop	r17
    1516:	0f 91       	pop	r16
    1518:	08 95       	ret

0000151a <printf>:
    151a:	a0 e0       	ldi	r26, 0x00	; 0
    151c:	b0 e0       	ldi	r27, 0x00	; 0
    151e:	e3 e9       	ldi	r30, 0x93	; 147
    1520:	fa e0       	ldi	r31, 0x0A	; 10
    1522:	0c 94 40 09 	jmp	0x1280	; 0x1280 <__prologue_saves__+0x20>
    1526:	ae 01       	movw	r20, r28
    1528:	4b 5f       	subi	r20, 0xFB	; 251
    152a:	5f 4f       	sbci	r21, 0xFF	; 255
    152c:	fa 01       	movw	r30, r20
    152e:	61 91       	ld	r22, Z+
    1530:	71 91       	ld	r23, Z+
    1532:	af 01       	movw	r20, r30
    1534:	80 91 b6 03 	lds	r24, 0x03B6	; 0x8003b6 <__iob+0x2>
    1538:	90 91 b7 03 	lds	r25, 0x03B7	; 0x8003b7 <__iob+0x3>
    153c:	0e 94 b4 05 	call	0xb68	; 0xb68 <vfprintf>
    1540:	e2 e0       	ldi	r30, 0x02	; 2
    1542:	0c 94 5c 09 	jmp	0x12b8	; 0x12b8 <__epilogue_restores__+0x20>

00001546 <puts>:
    1546:	0f 93       	push	r16
    1548:	1f 93       	push	r17
    154a:	cf 93       	push	r28
    154c:	df 93       	push	r29
    154e:	e0 91 b6 03 	lds	r30, 0x03B6	; 0x8003b6 <__iob+0x2>
    1552:	f0 91 b7 03 	lds	r31, 0x03B7	; 0x8003b7 <__iob+0x3>
    1556:	23 81       	ldd	r18, Z+3	; 0x03
    1558:	21 ff       	sbrs	r18, 1
    155a:	1b c0       	rjmp	.+54     	; 0x1592 <puts+0x4c>
    155c:	8c 01       	movw	r16, r24
    155e:	d0 e0       	ldi	r29, 0x00	; 0
    1560:	c0 e0       	ldi	r28, 0x00	; 0
    1562:	f8 01       	movw	r30, r16
    1564:	81 91       	ld	r24, Z+
    1566:	8f 01       	movw	r16, r30
    1568:	60 91 b6 03 	lds	r22, 0x03B6	; 0x8003b6 <__iob+0x2>
    156c:	70 91 b7 03 	lds	r23, 0x03B7	; 0x8003b7 <__iob+0x3>
    1570:	db 01       	movw	r26, r22
    1572:	18 96       	adiw	r26, 0x08	; 8
    1574:	ed 91       	ld	r30, X+
    1576:	fc 91       	ld	r31, X
    1578:	19 97       	sbiw	r26, 0x09	; 9
    157a:	88 23       	and	r24, r24
    157c:	31 f0       	breq	.+12     	; 0x158a <puts+0x44>
    157e:	09 95       	icall
    1580:	89 2b       	or	r24, r25
    1582:	79 f3       	breq	.-34     	; 0x1562 <puts+0x1c>
    1584:	df ef       	ldi	r29, 0xFF	; 255
    1586:	cf ef       	ldi	r28, 0xFF	; 255
    1588:	ec cf       	rjmp	.-40     	; 0x1562 <puts+0x1c>
    158a:	8a e0       	ldi	r24, 0x0A	; 10
    158c:	09 95       	icall
    158e:	89 2b       	or	r24, r25
    1590:	19 f0       	breq	.+6      	; 0x1598 <puts+0x52>
    1592:	8f ef       	ldi	r24, 0xFF	; 255
    1594:	9f ef       	ldi	r25, 0xFF	; 255
    1596:	02 c0       	rjmp	.+4      	; 0x159c <puts+0x56>
    1598:	8d 2f       	mov	r24, r29
    159a:	9c 2f       	mov	r25, r28
    159c:	df 91       	pop	r29
    159e:	cf 91       	pop	r28
    15a0:	1f 91       	pop	r17
    15a2:	0f 91       	pop	r16
    15a4:	08 95       	ret

000015a6 <__ultoa_invert>:
    15a6:	fa 01       	movw	r30, r20
    15a8:	aa 27       	eor	r26, r26
    15aa:	28 30       	cpi	r18, 0x08	; 8
    15ac:	51 f1       	breq	.+84     	; 0x1602 <__ultoa_invert+0x5c>
    15ae:	20 31       	cpi	r18, 0x10	; 16
    15b0:	81 f1       	breq	.+96     	; 0x1612 <__ultoa_invert+0x6c>
    15b2:	e8 94       	clt
    15b4:	6f 93       	push	r22
    15b6:	6e 7f       	andi	r22, 0xFE	; 254
    15b8:	6e 5f       	subi	r22, 0xFE	; 254
    15ba:	7f 4f       	sbci	r23, 0xFF	; 255
    15bc:	8f 4f       	sbci	r24, 0xFF	; 255
    15be:	9f 4f       	sbci	r25, 0xFF	; 255
    15c0:	af 4f       	sbci	r26, 0xFF	; 255
    15c2:	b1 e0       	ldi	r27, 0x01	; 1
    15c4:	3e d0       	rcall	.+124    	; 0x1642 <__ultoa_invert+0x9c>
    15c6:	b4 e0       	ldi	r27, 0x04	; 4
    15c8:	3c d0       	rcall	.+120    	; 0x1642 <__ultoa_invert+0x9c>
    15ca:	67 0f       	add	r22, r23
    15cc:	78 1f       	adc	r23, r24
    15ce:	89 1f       	adc	r24, r25
    15d0:	9a 1f       	adc	r25, r26
    15d2:	a1 1d       	adc	r26, r1
    15d4:	68 0f       	add	r22, r24
    15d6:	79 1f       	adc	r23, r25
    15d8:	8a 1f       	adc	r24, r26
    15da:	91 1d       	adc	r25, r1
    15dc:	a1 1d       	adc	r26, r1
    15de:	6a 0f       	add	r22, r26
    15e0:	71 1d       	adc	r23, r1
    15e2:	81 1d       	adc	r24, r1
    15e4:	91 1d       	adc	r25, r1
    15e6:	a1 1d       	adc	r26, r1
    15e8:	20 d0       	rcall	.+64     	; 0x162a <__ultoa_invert+0x84>
    15ea:	09 f4       	brne	.+2      	; 0x15ee <__ultoa_invert+0x48>
    15ec:	68 94       	set
    15ee:	3f 91       	pop	r19
    15f0:	2a e0       	ldi	r18, 0x0A	; 10
    15f2:	26 9f       	mul	r18, r22
    15f4:	11 24       	eor	r1, r1
    15f6:	30 19       	sub	r19, r0
    15f8:	30 5d       	subi	r19, 0xD0	; 208
    15fa:	31 93       	st	Z+, r19
    15fc:	de f6       	brtc	.-74     	; 0x15b4 <__ultoa_invert+0xe>
    15fe:	cf 01       	movw	r24, r30
    1600:	08 95       	ret
    1602:	46 2f       	mov	r20, r22
    1604:	47 70       	andi	r20, 0x07	; 7
    1606:	40 5d       	subi	r20, 0xD0	; 208
    1608:	41 93       	st	Z+, r20
    160a:	b3 e0       	ldi	r27, 0x03	; 3
    160c:	0f d0       	rcall	.+30     	; 0x162c <__ultoa_invert+0x86>
    160e:	c9 f7       	brne	.-14     	; 0x1602 <__ultoa_invert+0x5c>
    1610:	f6 cf       	rjmp	.-20     	; 0x15fe <__ultoa_invert+0x58>
    1612:	46 2f       	mov	r20, r22
    1614:	4f 70       	andi	r20, 0x0F	; 15
    1616:	40 5d       	subi	r20, 0xD0	; 208
    1618:	4a 33       	cpi	r20, 0x3A	; 58
    161a:	18 f0       	brcs	.+6      	; 0x1622 <__ultoa_invert+0x7c>
    161c:	49 5d       	subi	r20, 0xD9	; 217
    161e:	31 fd       	sbrc	r19, 1
    1620:	40 52       	subi	r20, 0x20	; 32
    1622:	41 93       	st	Z+, r20
    1624:	02 d0       	rcall	.+4      	; 0x162a <__ultoa_invert+0x84>
    1626:	a9 f7       	brne	.-22     	; 0x1612 <__ultoa_invert+0x6c>
    1628:	ea cf       	rjmp	.-44     	; 0x15fe <__ultoa_invert+0x58>
    162a:	b4 e0       	ldi	r27, 0x04	; 4
    162c:	a6 95       	lsr	r26
    162e:	97 95       	ror	r25
    1630:	87 95       	ror	r24
    1632:	77 95       	ror	r23
    1634:	67 95       	ror	r22
    1636:	ba 95       	dec	r27
    1638:	c9 f7       	brne	.-14     	; 0x162c <__ultoa_invert+0x86>
    163a:	00 97       	sbiw	r24, 0x00	; 0
    163c:	61 05       	cpc	r22, r1
    163e:	71 05       	cpc	r23, r1
    1640:	08 95       	ret
    1642:	9b 01       	movw	r18, r22
    1644:	ac 01       	movw	r20, r24
    1646:	0a 2e       	mov	r0, r26
    1648:	06 94       	lsr	r0
    164a:	57 95       	ror	r21
    164c:	47 95       	ror	r20
    164e:	37 95       	ror	r19
    1650:	27 95       	ror	r18
    1652:	ba 95       	dec	r27
    1654:	c9 f7       	brne	.-14     	; 0x1648 <__ultoa_invert+0xa2>
    1656:	62 0f       	add	r22, r18
    1658:	73 1f       	adc	r23, r19
    165a:	84 1f       	adc	r24, r20
    165c:	95 1f       	adc	r25, r21
    165e:	a0 1d       	adc	r26, r0
    1660:	08 95       	ret

00001662 <_exit>:
    1662:	f8 94       	cli

00001664 <__stop_program>:
    1664:	ff cf       	rjmp	.-2      	; 0x1664 <__stop_program>
